
/home/mehul/SNN/spynnaker_build/sPyNNaker/neural_modelling/builds/IF_curr_exp_stdp_mad_vogels_2011_additive/IF_curr_exp_stdp_mad_vogels_2011_additive.elf:     file format elf32-littlearm
/home/mehul/SNN/spynnaker_build/sPyNNaker/neural_modelling/builds/IF_curr_exp_stdp_mad_vogels_2011_additive/IF_curr_exp_stdp_mad_vogels_2011_additive.elf
architecture: armv5te, flags 0x00000112:
EXEC_P, HAS_SYMS, D_PAGED
start address 0x00000000

Program Header:
    LOAD off    0x00010000 vaddr 0x00000000 paddr 0x00000000 align 2**16
         filesz 0x0000569e memsz 0x0000569e flags r-x
    LOAD off    0x00020000 vaddr 0x00400000 paddr 0x00400000 align 2**16
         filesz 0x00000010 memsz 0x00000c3c flags rw-
private flags = 5000200: [Version5 EABI] [soft-float ABI]

Sections:
Idx Name          Size      VMA       LMA       File off  Algn
  0 RO_DATA       0000569e  00000000  00000000  00010000  2**3
                  CONTENTS, ALLOC, LOAD, READONLY, CODE
  1 RW_DATA       00000010  00400000  00400000  00020000  2**2
                  CONTENTS, ALLOC, LOAD, DATA
  2 ZI_DATA       00000c2c  00400010  00400010  00020010  2**2
                  ALLOC
  3 .debug_info   000273bf  00000000  00000000  00020010  2**0
                  CONTENTS, READONLY, DEBUGGING
  4 .debug_abbrev 00005c78  00000000  00000000  000473cf  2**0
                  CONTENTS, READONLY, DEBUGGING
  5 .debug_loc    00009859  00000000  00000000  0004d047  2**0
                  CONTENTS, READONLY, DEBUGGING
  6 .debug_aranges 000009b8  00000000  00000000  000568a0  2**0
                  CONTENTS, READONLY, DEBUGGING
  7 .debug_ranges 00001360  00000000  00000000  00057258  2**0
                  CONTENTS, READONLY, DEBUGGING
  8 .debug_line   00005384  00000000  00000000  000585b8  2**0
                  CONTENTS, READONLY, DEBUGGING
  9 .debug_str    0000590a  00000000  00000000  0005d93c  2**0
                  CONTENTS, READONLY, DEBUGGING
 10 .comment      00000038  00000000  00000000  00063246  2**0
                  CONTENTS, READONLY
 11 .ARM.attributes 00000029  00000000  00000000  0006327e  2**0
                  CONTENTS, READONLY
 12 .debug_frame  00001e38  00000000  00000000  000632a8  2**2
                  CONTENTS, READONLY, DEBUGGING
SYMBOL TABLE:
00000000 l    d  RO_DATA	00000000 RO_DATA
00400000 l    d  RW_DATA	00000000 RW_DATA
00400010 l    d  ZI_DATA	00000000 ZI_DATA
00000000 l    d  .debug_info	00000000 .debug_info
00000000 l    d  .debug_abbrev	00000000 .debug_abbrev
00000000 l    d  .debug_loc	00000000 .debug_loc
00000000 l    d  .debug_aranges	00000000 .debug_aranges
00000000 l    d  .debug_ranges	00000000 .debug_ranges
00000000 l    d  .debug_line	00000000 .debug_line
00000000 l    d  .debug_str	00000000 .debug_str
00000000 l    d  .comment	00000000 .comment
00000000 l    d  .ARM.attributes	00000000 .ARM.attributes
00000000 l    d  .debug_frame	00000000 .debug_frame
00000000 l    df *ABS*	00000000 sark.o
00000001 l       *ABS*	00000000 GNU
00000000 l       *ABS*	00000000 NULL
80000000 l       *ABS*	00000000 BIT_31
00000001 l       *ABS*	00000000 BUF_WRITE
00000012 l       *ABS*	00000000 NUM_CPUS
00000006 l       *ABS*	00000000 NUM_LINKS
00000000 l       *ABS*	00000000 ITCM_BASE
00008000 l       *ABS*	00000000 ITCM_SIZE
00008000 l       *ABS*	00000000 ITCM_TOP
00400000 l       *ABS*	00000000 DTCM_BASE
00010000 l       *ABS*	00000000 DTCM_SIZE
00410000 l       *ABS*	00000000 DTCM_TOP
70000000 l       *ABS*	00000000 SDRAM_BASE_UNBUF
60000000 l       *ABS*	00000000 SDRAM_BASE_BUF
60000000 l       *ABS*	00000000 SDRAM_BASE
08000000 l       *ABS*	00000000 SDRAM_SIZE
68000000 l       *ABS*	00000000 SDRAM_TOP
f5000000 l       *ABS*	00000000 SYSRAM_BASE_UNBUF
e5000000 l       *ABS*	00000000 SYSRAM_BASE_BUF
e5000000 l       *ABS*	00000000 SYSRAM_BASE
00008000 l       *ABS*	00000000 SYSRAM_SIZE
e5008000 l       *ABS*	00000000 SYSRAM_TOP
f6000000 l       *ABS*	00000000 ROM_BASE
00008000 l       *ABS*	00000000 ROM_SIZE
f6008000 l       *ABS*	00000000 ROM_TOP
10000000 l       *ABS*	00000000 CC_BASE_UNBUF
20000000 l       *ABS*	00000000 CC_BASE_BUF
20000000 l       *ABS*	00000000 CC_BASE
00000000 l       *ABS*	00000000 CC_TCR
00000004 l       *ABS*	00000000 CC_TXDATA
00000008 l       *ABS*	00000000 CC_TXKEY
0000000c l       *ABS*	00000000 CC_RSR
00000010 l       *ABS*	00000000 CC_RXDATA
00000014 l       *ABS*	00000000 CC_RXKEY
00000018 l       *ABS*	00000000 CC_SAR
0000001c l       *ABS*	00000000 CC_TEST
11000000 l       *ABS*	00000000 TIMER_BASE_UNBUF
21000000 l       *ABS*	00000000 TIMER_BASE_BUF
21000000 l       *ABS*	00000000 TIMER_BASE
00000020 l       *ABS*	00000000 TIMER_OFFSET
21000000 l       *ABS*	00000000 TIMER1_BASE
21000020 l       *ABS*	00000000 TIMER2_BASE
00000000 l       *ABS*	00000000 TC_LOAD
00000004 l       *ABS*	00000000 TC_COUNT
00000008 l       *ABS*	00000000 TC_CONTROL
0000000c l       *ABS*	00000000 TC_INT_CLR
00000010 l       *ABS*	00000000 TC_RAW_INT
00000014 l       *ABS*	00000000 TC_MASK_INT
00000018 l       *ABS*	00000000 TC_BG_LOAD
00000000 l       *ABS*	00000000 T1_LOAD
00000004 l       *ABS*	00000000 T1_COUNT
00000008 l       *ABS*	00000000 T1_CONTROL
0000000c l       *ABS*	00000000 T1_INT_CLR
00000010 l       *ABS*	00000000 T1_RAW_INT
00000014 l       *ABS*	00000000 T1_MASK_INT
00000018 l       *ABS*	00000000 T1_BG_LOAD
00000020 l       *ABS*	00000000 T2_LOAD
00000024 l       *ABS*	00000000 T2_COUNT
00000028 l       *ABS*	00000000 T2_CONTROL
0000002c l       *ABS*	00000000 T2_INT_CLR
00000030 l       *ABS*	00000000 T2_RAW_INT
00000034 l       *ABS*	00000000 T2_MASK_INT
00000038 l       *ABS*	00000000 T2_BG_LOAD
1f000000 l       *ABS*	00000000 VIC_BASE_UNBUF
2f000000 l       *ABS*	00000000 VIC_BASE_BUF
2f000000 l       *ABS*	00000000 VIC_BASE
00000000 l       *ABS*	00000000 VIC_IRQST
00000004 l       *ABS*	00000000 VIC_FIQST
00000008 l       *ABS*	00000000 VIC_RAW
0000000c l       *ABS*	00000000 VIC_SELECT
00000010 l       *ABS*	00000000 VIC_ENABLE
00000014 l       *ABS*	00000000 VIC_DISABLE
00000018 l       *ABS*	00000000 VIC_SOFT_SET
0000001c l       *ABS*	00000000 VIC_SOFT_CLR
00000020 l       *ABS*	00000000 VIC_PROTECT
00000030 l       *ABS*	00000000 VIC_VADDR
00000034 l       *ABS*	00000000 VIC_DEFADDR
00000100 l       *ABS*	00000000 VIC_ADDR
00000100 l       *ABS*	00000000 VIC_ADDR0
00000104 l       *ABS*	00000000 VIC_ADDR1
00000108 l       *ABS*	00000000 VIC_ADDR2
0000010c l       *ABS*	00000000 VIC_ADDR3
00000110 l       *ABS*	00000000 VIC_ADDR4
00000114 l       *ABS*	00000000 VIC_ADDR5
00000118 l       *ABS*	00000000 VIC_ADDR6
0000011c l       *ABS*	00000000 VIC_ADDR7
00000120 l       *ABS*	00000000 VIC_ADDR8
00000124 l       *ABS*	00000000 VIC_ADDR9
00000128 l       *ABS*	00000000 VIC_ADDR10
0000012c l       *ABS*	00000000 VIC_ADDR11
00000130 l       *ABS*	00000000 VIC_ADDR12
00000134 l       *ABS*	00000000 VIC_ADDR13
00000138 l       *ABS*	00000000 VIC_ADDR14
0000013c l       *ABS*	00000000 VIC_ADDR15
00000200 l       *ABS*	00000000 VIC_CNTL
00000200 l       *ABS*	00000000 VIC_CNTL0
00000204 l       *ABS*	00000000 VIC_CNTL1
00000208 l       *ABS*	00000000 VIC_CNTL2
0000020c l       *ABS*	00000000 VIC_CNTL3
00000210 l       *ABS*	00000000 VIC_CNTL4
00000214 l       *ABS*	00000000 VIC_CNTL5
00000218 l       *ABS*	00000000 VIC_CNTL6
0000021c l       *ABS*	00000000 VIC_CNTL7
00000220 l       *ABS*	00000000 VIC_CNTL8
00000224 l       *ABS*	00000000 VIC_CNTL9
00000228 l       *ABS*	00000000 VIC_CNTL10
0000022c l       *ABS*	00000000 VIC_CNTL11
00000230 l       *ABS*	00000000 VIC_CNTL12
00000234 l       *ABS*	00000000 VIC_CNTL13
00000238 l       *ABS*	00000000 VIC_CNTL14
0000023c l       *ABS*	00000000 VIC_CNTL15
00000000 l       *ABS*	00000000 WDOG_INT
00000001 l       *ABS*	00000000 SOFTWARE_INT
00000002 l       *ABS*	00000000 COMM_RX_INT
00000003 l       *ABS*	00000000 COMM_TX_INT
00000004 l       *ABS*	00000000 TIMER1_INT
00000005 l       *ABS*	00000000 TIMER2_INT
00000006 l       *ABS*	00000000 CC_RDY_INT
00000007 l       *ABS*	00000000 CC_RPE_INT
00000008 l       *ABS*	00000000 CC_RFE_INT
00000009 l       *ABS*	00000000 CC_TFL_INT
0000000a l       *ABS*	00000000 CC_TOV_INT
0000000b l       *ABS*	00000000 CC_TMT_INT
0000000c l       *ABS*	00000000 DMA_DONE_INT
0000000d l       *ABS*	00000000 DMA_ERR_INT
0000000e l       *ABS*	00000000 DMA_TO_INT
0000000f l       *ABS*	00000000 RTR_DIAG_INT
00000010 l       *ABS*	00000000 RTR_DUMP_INT
00000011 l       *ABS*	00000000 RTR_ERR_INT
00000012 l       *ABS*	00000000 CPU_INT
00000013 l       *ABS*	00000000 ETH_TX_INT
00000014 l       *ABS*	00000000 ETH_RX_INT
00000015 l       *ABS*	00000000 ETH_PHY_INT
00000016 l       *ABS*	00000000 SLOW_CLK_INT
00000017 l       *ABS*	00000000 CC_TNF_INT
00000018 l       *ABS*	00000000 CC_MC_INT
00000019 l       *ABS*	00000000 CC_P2P_INT
0000001a l       *ABS*	00000000 CC_NN_INT
0000001b l       *ABS*	00000000 CC_FR_INT
0000001c l       *ABS*	00000000 INT0_INT
0000001d l       *ABS*	00000000 INT1_INT
0000001e l       *ABS*	00000000 GPIO8_INT
0000001f l       *ABS*	00000000 GPIO9_INT
30000000 l       *ABS*	00000000 DMA_BASE_UNBUF
40000000 l       *ABS*	00000000 DMA_BASE_BUF
40000000 l       *ABS*	00000000 DMA_BASE
00000004 l       *ABS*	00000000 DMA_ADRS
00000008 l       *ABS*	00000000 DMA_ADRT
0000000c l       *ABS*	00000000 DMA_DESC
00000010 l       *ABS*	00000000 DMA_CTRL
00000014 l       *ABS*	00000000 DMA_STAT
00000018 l       *ABS*	00000000 DMA_GCTL
0000001c l       *ABS*	00000000 DMA_CRCC
00000020 l       *ABS*	00000000 DMA_CRCR
00000024 l       *ABS*	00000000 DMA_TMTV
00000028 l       *ABS*	00000000 DMA_SCTL
00000040 l       *ABS*	00000000 DMA_STAT0
00000044 l       *ABS*	00000000 DMA_STAT1
00000048 l       *ABS*	00000000 DMA_STAT2
0000004c l       *ABS*	00000000 DMA_STAT3
00000050 l       *ABS*	00000000 DMA_STAT4
00000054 l       *ABS*	00000000 DMA_STAT5
00000058 l       *ABS*	00000000 DMA_STAT6
0000005c l       *ABS*	00000000 DMA_STAT7
00000104 l       *ABS*	00000000 DMA_AD2S
00000108 l       *ABS*	00000000 DMA_AD2T
0000010c l       *ABS*	00000000 DMA_DES2
00000180 l       *ABS*	00000000 DMA_CRCT
f0000000 l       *ABS*	00000000 PL340_BASE_UNBUF
e0000000 l       *ABS*	00000000 PL340_BASE_BUF
e0000000 l       *ABS*	00000000 PL340_BASE
00000000 l       *ABS*	00000000 MC_STAT
00000004 l       *ABS*	00000000 MC_CMD
00000008 l       *ABS*	00000000 MC_DIRC
0000000c l       *ABS*	00000000 MC_MCFG
00000010 l       *ABS*	00000000 MC_REFP
00000014 l       *ABS*	00000000 MC_CASL
00000018 l       *ABS*	00000000 MC_DQSS
0000001c l       *ABS*	00000000 MC_MRD
00000020 l       *ABS*	00000000 MC_RAS
00000024 l       *ABS*	00000000 MC_RC
00000028 l       *ABS*	00000000 MC_RCD
0000002c l       *ABS*	00000000 MC_RFC
00000030 l       *ABS*	00000000 MC_RP
00000034 l       *ABS*	00000000 MC_RRD
00000038 l       *ABS*	00000000 MC_WR
0000003c l       *ABS*	00000000 MC_WTR
00000040 l       *ABS*	00000000 MC_XP
00000044 l       *ABS*	00000000 MC_XSR
00000048 l       *ABS*	00000000 MC_ESR
0000004c l       *ABS*	00000000 MC_MCFG2
00000050 l       *ABS*	00000000 MC_MCFG3
00000100 l       *ABS*	00000000 MC_QOS0
00000104 l       *ABS*	00000000 MC_QOS1
00000108 l       *ABS*	00000000 MC_QOS2
0000010c l       *ABS*	00000000 MC_QOS3
00000110 l       *ABS*	00000000 MC_QOS4
00000114 l       *ABS*	00000000 MC_QOS5
00000118 l       *ABS*	00000000 MC_QOS6
0000011c l       *ABS*	00000000 MC_QOS7
00000120 l       *ABS*	00000000 MC_QOS8
00000124 l       *ABS*	00000000 MC_QOS9
00000128 l       *ABS*	00000000 MC_QOS10
0000012c l       *ABS*	00000000 MC_QOS11
00000130 l       *ABS*	00000000 MC_QOS12
00000134 l       *ABS*	00000000 MC_QOS13
00000138 l       *ABS*	00000000 MC_QOS14
0000013c l       *ABS*	00000000 MC_QOS15
00000200 l       *ABS*	00000000 MC_CCFG0
00000204 l       *ABS*	00000000 MC_CCFG1
00000208 l       *ABS*	00000000 MC_CCFG2
0000020c l       *ABS*	00000000 MC_CCFG3
00000300 l       *ABS*	00000000 DLL_STATUS
00000304 l       *ABS*	00000000 DLL_CONFIG0
00000308 l       *ABS*	00000000 DLL_CONFIG1
f1000000 l       *ABS*	00000000 RTR_BASE_UNBUF
e1000000 l       *ABS*	00000000 RTR_BASE_BUF
e1000000 l       *ABS*	00000000 RTR_BASE
00000000 l       *ABS*	00000000 RTR_CONTROL
00000004 l       *ABS*	00000000 RTR_STATUS
00000008 l       *ABS*	00000000 RTR_EHDR
0000000c l       *ABS*	00000000 RTR_EKEY
00000010 l       *ABS*	00000000 RTR_EDAT
00000014 l       *ABS*	00000000 RTR_ESTAT
00000018 l       *ABS*	00000000 RTR_DHDR
0000001c l       *ABS*	00000000 RTR_DKEY
00000020 l       *ABS*	00000000 RTR_DDAT
00000024 l       *ABS*	00000000 RTR_DLINK
00000028 l       *ABS*	00000000 RTR_DSTAT
0000002c l       *ABS*	00000000 RTR_DGEN
00000084 l       *ABS*	00000000 RTR_FR
00000200 l       *ABS*	00000000 RTR_DGF0
00000204 l       *ABS*	00000000 RTR_DGF1
00000208 l       *ABS*	00000000 RTR_DGF2
0000020c l       *ABS*	00000000 RTR_DGF3
00000210 l       *ABS*	00000000 RTR_DGF4
00000214 l       *ABS*	00000000 RTR_DGF5
00000218 l       *ABS*	00000000 RTR_DGF6
0000021c l       *ABS*	00000000 RTR_DGF7
00000220 l       *ABS*	00000000 RTR_DGF8
00000224 l       *ABS*	00000000 RTR_DGF9
00000228 l       *ABS*	00000000 RTR_DGF10
0000022c l       *ABS*	00000000 RTR_DGF11
00000230 l       *ABS*	00000000 RTR_DGF12
00000234 l       *ABS*	00000000 RTR_DGF13
00000238 l       *ABS*	00000000 RTR_DGF14
0000023c l       *ABS*	00000000 RTR_DGF15
00000300 l       *ABS*	00000000 RTR_DGC0
00000304 l       *ABS*	00000000 RTR_DGC1
00000308 l       *ABS*	00000000 RTR_DGC2
0000030c l       *ABS*	00000000 RTR_DGC3
00000310 l       *ABS*	00000000 RTR_DGC4
00000314 l       *ABS*	00000000 RTR_DGC5
00000318 l       *ABS*	00000000 RTR_DGC6
0000031c l       *ABS*	00000000 RTR_DGC7
00000320 l       *ABS*	00000000 RTR_DGC8
00000324 l       *ABS*	00000000 RTR_DGC9
00000328 l       *ABS*	00000000 RTR_DGC10
0000032c l       *ABS*	00000000 RTR_DGC11
00000330 l       *ABS*	00000000 RTR_DGC12
00000334 l       *ABS*	00000000 RTR_DGC13
00000338 l       *ABS*	00000000 RTR_DGC14
0000033c l       *ABS*	00000000 RTR_DGC15
00000f00 l       *ABS*	00000000 RTR_TST1
00000f04 l       *ABS*	00000000 RTR_TST2
00002000 l       *ABS*	00000000 P2P_TABLE_SIZE
00000400 l       *ABS*	00000000 MC_TABLE_SIZE
00000018 l       *ABS*	00000000 MC_RAM_WIDTH
00ffffff l       *ABS*	00000000 MC_RAM_MASK
00000008 l       *ABS*	00000000 P2P_EPW
00000003 l       *ABS*	00000000 P2P_LOG_EPW
00000007 l       *ABS*	00000000 P2P_EMASK
00000003 l       *ABS*	00000000 P2P_BPE
00000007 l       *ABS*	00000000 P2P_BMASK
00db6db6 l       *ABS*	00000000 P2P_INIT
e1004000 l       *ABS*	00000000 RTR_MCRAM_BASE
e1005000 l       *ABS*	00000000 RTR_MCRAM_TOP
e1008000 l       *ABS*	00000000 RTR_MCKEY_BASE
e1009000 l       *ABS*	00000000 RTR_MCKEY_TOP
e100c000 l       *ABS*	00000000 RTR_MCMASK_BASE
e100d000 l       *ABS*	00000000 RTR_MCMASK_TOP
e1010000 l       *ABS*	00000000 RTR_P2P_BASE
e1018000 l       *ABS*	00000000 RTR_P2P_TOP
00000020 l       *ABS*	00000000 MC_CAM_WIDTH
f2000000 l       *ABS*	00000000 SYSCTL_BASE_UNBUF
e2000000 l       *ABS*	00000000 SYSCTL_BASE_BUF
e2000000 l       *ABS*	00000000 SYSCTL_BASE
5ec00000 l       *ABS*	00000000 SC_CODE
59111012 l       *ABS*	00000000 CHIP_ID_CODE
00000000 l       *ABS*	00000000 SC_CHIP_ID
00000004 l       *ABS*	00000000 SC_CPU_DIS
00000008 l       *ABS*	00000000 SC_SET_IRQ
0000000c l       *ABS*	00000000 SC_CLR_IRQ
00000010 l       *ABS*	00000000 SC_SET_OK
00000010 l       *ABS*	00000000 SC_CPU_OK
00000014 l       *ABS*	00000000 SC_CLR_OK
00000018 l       *ABS*	00000000 SC_SOFT_RST_L
0000001c l       *ABS*	00000000 SC_HARD_RST_L
00000020 l       *ABS*	00000000 SC_SUBS_RST_L
00000024 l       *ABS*	00000000 SC_SOFT_RST_P
00000028 l       *ABS*	00000000 SC_HARD_RST_P
0000002c l       *ABS*	00000000 SC_SUBS_RST_P
00000030 l       *ABS*	00000000 SC_RST_CODE
00000034 l       *ABS*	00000000 SC_MON_ID
00000038 l       *ABS*	00000000 SC_MISC_CTRL
0000003c l       *ABS*	00000000 GPIO_RES
00000040 l       *ABS*	00000000 GPIO_PORT
00000044 l       *ABS*	00000000 GPIO_DIR
00000048 l       *ABS*	00000000 GPIO_SET
0000004c l       *ABS*	00000000 GPIO_CLR
00000048 l       *ABS*	00000000 GPIO_READ
00000050 l       *ABS*	00000000 SC_PLL1
00000054 l       *ABS*	00000000 SC_PLL2
00000058 l       *ABS*	00000000 SC_FLAG
00000058 l       *ABS*	00000000 SC_SETFLAG
0000005c l       *ABS*	00000000 SC_CLRFLAG
00000060 l       *ABS*	00000000 SC_CLKMUX
00000064 l       *ABS*	00000000 SC_SLEEP
00000068 l       *ABS*	00000000 SC_TS0
0000006c l       *ABS*	00000000 SC_TS1
00000070 l       *ABS*	00000000 SC_TS2
00000080 l       *ABS*	00000000 SC_ARB0
00000100 l       *ABS*	00000000 SC_TAS0
00000180 l       *ABS*	00000000 SC_TAC0
00000200 l       *ABS*	00000000 SC_LINK_DIS
00000000 l       *ABS*	00000000 RST_POR
00000001 l       *ABS*	00000000 RST_WDT
00000002 l       *ABS*	00000000 RST_USER
00000003 l       *ABS*	00000000 RST_SW
00000004 l       *ABS*	00000000 RST_WDI
f3000000 l       *ABS*	00000000 WDOG_BASE_UNBUF
e3000000 l       *ABS*	00000000 WDOG_BASE_BUF
e3000000 l       *ABS*	00000000 WDOG_BASE
00000000 l       *ABS*	00000000 WD_LOAD
00000004 l       *ABS*	00000000 WD_COUNT
00000008 l       *ABS*	00000000 WD_CTRL
0000000c l       *ABS*	00000000 WD_INTCLR
00000010 l       *ABS*	00000000 WD_RAWINT
00000014 l       *ABS*	00000000 WD_MSKINT
00000c00 l       *ABS*	00000000 WD_LOCK
1acce551 l       *ABS*	00000000 WD_CODE
00000001 l       *ABS*	00000000 WD_INT_B
00000002 l       *ABS*	00000000 WD_RST_B
f4000000 l       *ABS*	00000000 ETH_BASE_UNBUF
e4000000 l       *ABS*	00000000 ETH_BASE_BUF
e4000000 l       *ABS*	00000000 ETH_BASE
e4000000 l       *ABS*	00000000 ETH_TX_BASE
00000600 l       *ABS*	00000000 ETH_TX_SIZE
e4000600 l       *ABS*	00000000 ETH_TX_TOP
e4004000 l       *ABS*	00000000 ETH_RX_BASE
00000c00 l       *ABS*	00000000 ETH_RX_SIZE
e4004c00 l       *ABS*	00000000 ETH_RX_TOP
e4008000 l       *ABS*	00000000 ETH_RX_DESC_RAM
e400c000 l       *ABS*	00000000 ETH_REGS
00000000 l       *ABS*	00000000 ETH_CONTROL
00000004 l       *ABS*	00000000 ETH_STATUS
00000008 l       *ABS*	00000000 ETH_TX_LEN
0000000c l       *ABS*	00000000 ETH_TX_CMD
00000010 l       *ABS*	00000000 ETH_RX_CMD
00000014 l       *ABS*	00000000 ETH_MAC_LO
00000018 l       *ABS*	00000000 ETH_MAC_HI
0000001c l       *ABS*	00000000 ETH_PHY_CTRL
00000020 l       *ABS*	00000000 ETH_INT_CLR
00000024 l       *ABS*	00000000 ETH_RX_BUF_RP
0000002c l       *ABS*	00000000 ETH_RX_DESC_RP
00000001 l       *ABS*	00000000 ETH_TX_CLR
00000010 l       *ABS*	00000000 ETH_RX_CLR
00000001 l       *ABS*	00000000 PHY_CTRL_NRST
00000002 l       *ABS*	00000000 PHY_CTRL_DIN
00000004 l       *ABS*	00000000 PHY_CTRL_DOUT
00000008 l       *ABS*	00000000 PHY_CTRL_OE
00000010 l       *ABS*	00000000 PHY_CTRL_CLK
00000000 l       *ABS*	00000000 PKT_MC
00400000 l       *ABS*	00000000 PKT_P2P
00800000 l       *ABS*	00000000 PKT_NN
00a00000 l       *ABS*	00000000 PKT_NND
00c00000 l       *ABS*	00000000 PKT_FR
00020000 l       *ABS*	00000000 PKT_PL
00020000 l       *ABS*	00000000 PKT_MC_PL
00420000 l       *ABS*	00000000 PKT_P2P_PL
00820000 l       *ABS*	00000000 PKT_NN_PL
00c20000 l       *ABS*	00000000 PKT_FR_PL
0000000a l       *ABS*	00000000 CLK_XTAL_MHZ
0007011a l       *ABS*	00000000 PLL_260
0007011e l       *ABS*	00000000 PLL_300
00070121 l       *ABS*	00000000 PLL_330
00070128 l       *ABS*	00000000 PLL_400
00000050 l       *ABS*	00000000 PLL_LOCK_TIME
809488a5 l       *ABS*	00000000 PLL_CLK_SEL
00000020 l       *ABS*	00000000 SERIAL_NCS
00000010 l       *ABS*	00000000 SERIAL_CLK
00000008 l       *ABS*	00000000 SERIAL_SI
00000004 l       *ABS*	00000000 SERIAL_SO
00000038 l       *ABS*	00000000 SERIAL_OE
80000000 l       *ABS*	00000000 SDRAM_TQ
40000000 l       *ABS*	00000000 SDRAM_DPD
20000000 l       *ABS*	00000000 SDRAM_HERE
08000000 l       *ABS*	00000000 JTAG_NTRST
04000000 l       *ABS*	00000000 JTAG_TMS
02000000 l       *ABS*	00000000 JTAG_TDI
01000000 l       *ABS*	00000000 JTAG_TCK
00100000 l       *ABS*	00000000 JTAG_RTCK
00080000 l       *ABS*	00000000 JTAG_TDO
00008000 l       *ABS*	00000000 JTAG_INT
00000001 l       *ABS*	00000000 LED_0
00000010 l       *ABS*	00000000 MODE_USER
00000011 l       *ABS*	00000000 MODE_FIQ
00000012 l       *ABS*	00000000 MODE_IRQ
00000013 l       *ABS*	00000000 MODE_SVC
00000017 l       *ABS*	00000000 MODE_ABT
0000001b l       *ABS*	00000000 MODE_UND
0000001f l       *ABS*	00000000 MODE_SYS
00000020 l       *ABS*	00000000 THUMB_BIT
00000080 l       *ABS*	00000000 IMASK_IRQ
00000040 l       *ABS*	00000000 IMASK_FIQ
000000c0 l       *ABS*	00000000 IMASK_ALL
00000001 l       *ABS*	00000000 SARK_EVENT
00000180 l       *ABS*	00000000 SVC_STACK
00000100 l       *ABS*	00000000 IRQ_STACK
00000100 l       *ABS*	00000000 FIQ_STACK
00000004 l       *ABS*	00000000 NUM_SDP_MSGS
0000000f l       *ABS*	00000000 SARK_SLOT
00000010 l       *ABS*	00000000 INIT_EVENTS
deaddead l       *ABS*	00000000 DEAD_WORD
00000001 l       *ABS*	00000000 APLX_ACOPY
00000002 l       *ABS*	00000000 APLX_RCOPY
00000003 l       *ABS*	00000000 APLX_FILL
00000004 l       *ABS*	00000000 APLX_EXEC
000000ff l       *ABS*	00000000 APLX_END
00000010 l       *ABS*	00000000 APLX_ENTRY_SIZE
00000040 l       *ABS*	00000000 APLX_BUF_SIZE
00007fc0 l       *ABS*	00000000 APLX_BUFFER
000000ff l       *ABS*	00000000 TAG_NONE
00000000 l       *ABS*	00000000 TAG_HOST
00000001 l       *ABS*	00000000 RTR_ALLOC_FIRST
00000400 l       *ABS*	00000000 RTR_ALLOC_LAST
000003ff l       *ABS*	00000000 RTR_ALLOC_MAX
00000001 l       *ABS*	00000000 ALLOC_LOCK
00000002 l       *ABS*	00000000 ALLOC_ID
00000005 l       *ABS*	00000000 A_LOCK_SEMA
00000001 l       *ABS*	00000000 A_RTE_RESET
00000002 l       *ABS*	00000000 A_RTE_UNDEF
00000003 l       *ABS*	00000000 A_RTE_SVC
00000004 l       *ABS*	00000000 A_RTE_PABT
00000005 l       *ABS*	00000000 A_RTE_DABT
00000006 l       *ABS*	00000000 A_RTE_IRQ
00000007 l       *ABS*	00000000 A_RTE_FIQ
00000008 l       *ABS*	00000000 A_RTE_VIC
00000002 l       *ABS*	00000000 A_STATE_RTE
00000006 l       *ABS*	00000000 EVENT_COUNT
00000000 l       *ABS*	00000000 CMD_VER
00000001 l       *ABS*	00000000 CMD_RUN
00000002 l       *ABS*	00000000 CMD_READ
00000003 l       *ABS*	00000000 CMD_WRITE
00000004 l       *ABS*	00000000 CMD_APLX
00000005 l       *ABS*	00000000 CMD_FILL
00000010 l       *ABS*	00000000 CMD_REMAP
00000011 l       *ABS*	00000000 CMD_LINK_READ
00000012 l       *ABS*	00000000 CMD_LINK_WRITE
00000013 l       *ABS*	00000000 CMD_AR
00000014 l       *ABS*	00000000 CMD_NNP
00000016 l       *ABS*	00000000 CMD_SIG
00000017 l       *ABS*	00000000 CMD_FFD
00000018 l       *ABS*	00000000 CMD_AS
00000019 l       *ABS*	00000000 CMD_LED
0000001a l       *ABS*	00000000 CMD_IPTAG
0000001b l       *ABS*	00000000 CMD_SROM
0000001c l       *ABS*	00000000 CMD_ALLOC
0000001d l       *ABS*	00000000 CMD_RTR
0000001f l       *ABS*	00000000 CMD_INFO
00000040 l       *ABS*	00000000 CMD_TUBE
00000080 l       *ABS*	00000000 RC_OK
00000081 l       *ABS*	00000000 RC_LEN
00000082 l       *ABS*	00000000 RC_SUM
00000083 l       *ABS*	00000000 RC_CMD
00000084 l       *ABS*	00000000 RC_ARG
00000085 l       *ABS*	00000000 RC_PORT
00000086 l       *ABS*	00000000 RC_TIMEOUT
00000087 l       *ABS*	00000000 RC_ROUTE
00000088 l       *ABS*	00000000 RC_CPU
00000089 l       *ABS*	00000000 RC_DEAD
0000008a l       *ABS*	00000000 RC_BUF
0000008b l       *ABS*	00000000 RC_P2P_NOREPLY
0000008c l       *ABS*	00000000 RC_P2P_REJECT
0000008d l       *ABS*	00000000 RC_P2P_BUSY
0000008e l       *ABS*	00000000 RC_P2P_TIMEOUT
0000008f l       *ABS*	00000000 RC_PKT_TX
00000000 l       *ABS*	00000000 TYPE_BYTE
00000001 l       *ABS*	00000000 TYPE_HALF
00000002 l       *ABS*	00000000 TYPE_WORD
00000008 l       *ABS*	00000000 NUM_SDP_PORTS
00000005 l       *ABS*	00000000 PORT_SHIFT
000000e0 l       *ABS*	00000000 PORT_MASK
0000001f l       *ABS*	00000000 CPU_MASK
000000ff l       *ABS*	00000000 PORT_ETH
00000100 l       *ABS*	00000000 SDP_BUF_SIZE
00000080 l       *ABS*	00000000 VCPU_SIZE
0000002c l       *ABS*	00000000 VCPU_RT_CODE
0000002e l       *ABS*	00000000 VCPU_CPU_STATE
0000002f l       *ABS*	00000000 VCPU_APP_ID
0000001c l       *ABS*	00000000 SARK_MSG_INT
0000001d l       *ABS*	00000000 SARK_SIG_INT
00000000 l       *ABS*	00000000 SARK_VIRT_CPU
00000008 l       *ABS*	00000000 SARK_RANDOM
00000030 l       *ABS*	00000000 SARK_CPU_CLK
00000020 l       *ABS*	00000000 SV_SSIZE
00000060 l       *ABS*	00000000 SV_USIZE
00000080 l       *ABS*	00000000 SV_ISIZE
00000020 l       *ABS*	00000000 SV_VSIZE
00000040 l       *ABS*	00000000 SV_RSIZE
00001000 l       *ABS*	00000000 SV_SIZE
e5007fe0 l       *ABS*	00000000 SV_SROM
e5007f80 l       *ABS*	00000000 SV_UBASE
e5007f00 l       *ABS*	00000000 SV_IBASE
e5007f00 l       *ABS*	00000000 SV_SV
00000100 l       *ABS*	00000000 SYS_BOOT
e5007000 l       *ABS*	00000000 SYS_USER_TOP
e5000100 l       *ABS*	00000000 SYS_USER_BASE
e5007ee0 l       *ABS*	00000000 SV_VECTORS
e5007ea0 l       *ABS*	00000000 SV_RANDOM
e5007000 l       *ABS*	00000000 SV_VCPU
e5007900 l       *ABS*	00000000 SV_SPARE
000005a0 l       *ABS*	00000000 SPARE_SIZE
e5007fe0 l       *ABS*	00000000 SROM_FLAG_BASE
e5007f80 l       *ABS*	00000000 STATUS_MAP_BASE
e5007ee0 l       *ABS*	00000000 RST_BLOCK_BASE
00008000 l       *ABS*	00000000 SRF_PRESENT
000000f0 l       *ABS*	00000000 SRF_HW_VER
00000008 l       *ABS*	00000000 SRF_PHY_INIT
00000004 l       *ABS*	00000000 SRF_PHY_RST
00000002 l       *ABS*	00000000 SRF_PHY_WAIT
00000001 l       *ABS*	00000000 SRF_ETH
00000000 l       *ABS*	00000000 SRF_NONE
00000020 l       RO_DATA	00000000 reset_vec
00000004 l       RO_DATA	00000000 undef
00000024 l       RO_DATA	00000000 undef_vec
00000028 l       RO_DATA	00000000 svc_vec
0000002c l       RO_DATA	00000000 pabt_vec
00000030 l       RO_DATA	00000000 dabt_vec
0000003c l       RO_DATA	00000000 fiq_vec
00000078 l       RO_DATA	00000000 reset_entry
000000d8 l       RO_DATA	00000000 undef_error
000000e0 l       RO_DATA	00000000 svc_error
000000e8 l       RO_DATA	00000000 pabt_error
000000f0 l       RO_DATA	00000000 dabt_error
00000034 l       RO_DATA	00000000 aplx_proc
00000038 l       RO_DATA	00000000 irq_vec
000000f8 l       RO_DATA	00000000 irq_error
00000100 l       RO_DATA	00000000 fiq_error
00000040 l       RO_DATA	00000000 svc_stack
00000042 l       RO_DATA	00000000 irq_stack
00000044 l       RO_DATA	00000000 fiq_stack
00000046 l       RO_DATA	00000000 stack_size
00000048 l       RO_DATA	00000000 code_top
0000004c l       RO_DATA	00000000 heap_base
00000050 l       RO_DATA	00000000 stack_top
00000054 l       RO_DATA	00000000 stack_fill
00000058 l       RO_DATA	00000000 num_msgs
00000059 l       RO_DATA	00000000 sark_slot
0000005a l       RO_DATA	00000000 num_events
0000005b l       RO_DATA	00000000 api
0000005c l       RO_DATA	00000000 app_id
0000005d l       RO_DATA	00000000 app_flags
0000005e l       RO_DATA	00000000 __PAD
00000060 l       RO_DATA	00000000 event_vec
000000d0 l       RO_DATA	00000000 reset_error
00000114 l       RO_DATA	00000000 exc_error
00000138 l       RO_DATA	00000000 cc_error
000001fc l       RO_DATA	00000000 lg1
00000238 l       RO_DATA	00000000 ws1
00000298 l       RO_DATA	00000000 wc2
00000280 l       RO_DATA	00000000 wc1
000002c4 l       RO_DATA	00000000 delay1
0000038c l       RO_DATA	00000000 aplx_buffer
00000390 l       RO_DATA	00000000 aplx_loader
0000037c l       RO_DATA	00000000 aplx_l0
000003a8 l       RO_DATA	00000000 aplx_copy
000003a4 l       RO_DATA	00000000 aplx_rcopy
000003b6 l       RO_DATA	00000000 aplx_fill
000003c6 l       RO_DATA	00000000 aplx_exec
000003bc l       RO_DATA	00000000 aplx_l1
00000000 l    df *ABS*	00000000 sark_base.c
00000000 l    df *ABS*	00000000 sark_event.c
00000000 l    df *ABS*	00000000 sark_timer.c
00000000 l    df *ABS*	00000000 sark_hw.c
00000000 l    df *ABS*	00000000 sark_isr.c
00000000 l    df *ABS*	00000000 sark_alloc.c
00000000 l    df *ABS*	00000000 sark_io.c
00004140 l     F RO_DATA	00000040 io_buf_init
000042b4 l     F RO_DATA	000000c0 io_put_fixed
00400334 l     O ZI_DATA	00000004 io_msg
0000554e l     O RO_DATA	00000011 hex
00400338 l     O ZI_DATA	00000004 io_buf
0040033c l     O ZI_DATA	00000004 buf_ptr
00400340 l     O ZI_DATA	00000004 sp_ptr
00000000 l    df *ABS*	00000000 sark_pkt.c
00000000 l    df *ABS*	00000000 sark_div0.c
00000000 l    df *ABS*	00000000 out_spikes.c
00400010 l     O ZI_DATA	00000004 out_spikes_size
00400014 l     O ZI_DATA	00000004 spikes
00000000 l    df *ABS*	00000000 c_main.c
0040001c l     O ZI_DATA	00000004 infinite_run
00400020 l     O ZI_DATA	00000004 simulation_ticks
00400024 l     O ZI_DATA	00000004 recording_flags
00400034 l     O ZI_DATA	00000004 timer_period
00400038 l     O ZI_DATA	00000004 timer_offset
00000000 l    df *ABS*	00000000 synapses.c
0040003c l     O ZI_DATA	00000004 n_neurons
00400040 l     O ZI_DATA	00000004 n_synapse_types
00400044 l     O ZI_DATA	00000004 ring_buffer_to_input_left_shifts
00400048 l     O ZI_DATA	00000004 ring_buffers
0040004c l     O ZI_DATA	00000004 synapse_type_index_bits
00400050 l     O ZI_DATA	00000004 synapse_type_index_mask
00400054 l     O ZI_DATA	00000004 synapse_index_bits
00400058 l     O ZI_DATA	00000004 synapse_index_mask
0040005c l     O ZI_DATA	00000004 synapse_type_bits
00400060 l     O ZI_DATA	00000004 synapse_type_mask
00400068 l     O ZI_DATA	00000004 saturation_count
00000000 l    df *ABS*	00000000 neuron.c
00000da0 l     F RO_DATA	00000154 _neuron_load_neuron_parameters
0040006c l     O ZI_DATA	00000004 n_recordings_outstanding
00400070 l     O ZI_DATA	00000004 n_neurons
00400074 l     O ZI_DATA	00000004 spike_recording_rate
00400078 l     O ZI_DATA	00000004 n_spike_recording_words
0040007c l     O ZI_DATA	00000004 spike_recording_indexes
00400080 l     O ZI_DATA	00000004 var_recording_rate
00400084 l     O ZI_DATA	00000004 var_recording_size
00400088 l     O ZI_DATA	00000004 var_recording_indexes
0040008c l     O ZI_DATA	00000004 n_recorded_vars
00400090 l     O ZI_DATA	00000004 global_parameters
00400094 l     O ZI_DATA	00000004 neuron_array
00400098 l     O ZI_DATA	00000004 input_type_array
0040009c l     O ZI_DATA	00000004 threshold_type_array
004000a0 l     O ZI_DATA	00000004 neuron_synapse_shaping_params
004000a4 l     O ZI_DATA	00000004 additional_input_array
004000a8 l     O ZI_DATA	00000004 time_between_spikes
004000ac l     O ZI_DATA	00000001 use_key
004000b0 l     O ZI_DATA	00000004 key
004000b4 l     O ZI_DATA	00000004 var_recording_count
004000b8 l     O ZI_DATA	00000004 var_recording_increment
004000bc l     O ZI_DATA	00000004 var_recording_values
004000c0 l     O ZI_DATA	00000004 spike_recording_increment
004000c4 l     O ZI_DATA	00000004 spike_recording_count
004000c8 l     O ZI_DATA	00000004 expected_time
00000000 l    df *ABS*	00000000 spike_processing.c
00400000 l     O RW_DATA	00000004 spike
004000d0 l     O ZI_DATA	00000004 buffer
004000d4 l     O ZI_DATA	00000001 dma_busy
004000dc l     O ZI_DATA	00000010 single_fixed_synapse
004000ec l     O ZI_DATA	00000004 next_buffer_to_fill
004000f0 l     O ZI_DATA	00000020 dma_buffers
00400110 l     O ZI_DATA	00000004 buffer_being_read
00400114 l     O ZI_DATA	00000004 max_n_words
00000000 l    df *ABS*	00000000 population_table_binary_search_impl.c
00400118 l     O ZI_DATA	00000004 master_population_table_length
0040011c l     O ZI_DATA	00000004 master_population_table
00400120 l     O ZI_DATA	00000004 address_list
00400124 l     O ZI_DATA	00000004 synaptic_rows_base_address
00400128 l     O ZI_DATA	00000004 direct_rows_base_address
0040012c l     O ZI_DATA	00000002 items_to_go
0040012e l     O ZI_DATA	00000002 next_item
00400130 l     O ZI_DATA	00000004 last_neuron_id
00000000 l    df *ABS*	00000000 neuron_model_lif_impl.c
00000000 l    df *ABS*	00000000 synapse_dynamics_stdp_mad_impl.c
00400134 l     O ZI_DATA	00000004 synapse_type_index_bits
00400138 l     O ZI_DATA	00000004 synapse_type_index_mask
0040013c l     O ZI_DATA	00000004 synapse_index_bits
00400140 l     O ZI_DATA	00000004 synapse_index_mask
00400144 l     O ZI_DATA	00000004 synapse_delay_index_type_bits
00400148 l     O ZI_DATA	00000004 synapse_type_mask
00000000 l    df *ABS*	00000000 weight_additive_one_term_impl.c
00000000 l    df *ABS*	00000000 timing_vogels_2011_impl.c
00000000 l    df *ABS*	00000000 synaptogenesis_dynamics_static_impl.c
00000000 l    df *ABS*	00000000 data_specification.c
00000000 l    df *ABS*	00000000 simulation.c
00002684 l     F RO_DATA	00000098 _execute_provenance_storage
00400154 l     O ZI_DATA	00000004 pointer_to_simulation_time
00400158 l     O ZI_DATA	00000004 stored_provenance_function
0040015c l     O ZI_DATA	00000004 stored_exit_function
00400160 l     O ZI_DATA	00000004 stored_resume_function
00400164 l     O ZI_DATA	00000004 stored_provenance_data_address
00400168 l     O ZI_DATA	00000004 pointer_to_infinite_run
0040016c l     O ZI_DATA	00000040 dma_complete_callbacks
004001ac l     O ZI_DATA	00000020 sdp_callback
00000000 l    df *ABS*	00000000 recording.c
00002af0 l     F RO_DATA	00000040 circular_buffer_get_next
00002b30 l     F RO_DATA	00000064 compute_available_space_in_channel
00002b94 l     F RO_DATA	0000004c _create_buffer_message
00002c4c l     F RO_DATA	00000050 circular_buffer_add
00002c9c l     F RO_DATA	000000e8 _buffering_in_handler
00002d84 l     F RO_DATA	000000a8 _recording_write
004001cc l     O ZI_DATA	00000004 n_recording_regions
004001d0 l     O ZI_DATA	00000004 req_hdr
004001d4 l     O ZI_DATA	00000004 time_between_triggers
004001d8 l     O ZI_DATA	00000004 sdp_port
004001dc l     O ZI_DATA	00000001 sequence_ack
004001e0 l     O ZI_DATA	00000004 dma_complete_buffer
004001e4 l     O ZI_DATA	00000004 region_addresses
004001e8 l     O ZI_DATA	00000124 msg
0040030c l     O ZI_DATA	00000004 last_sequence_number
00400310 l     O ZI_DATA	00000004 region_sizes
00400314 l     O ZI_DATA	00000004 buffer_size_before_trigger
00400318 l     O ZI_DATA	00000004 sequence_number
0040031c l     O ZI_DATA	00000004 g_recording_channels
00400320 l     O ZI_DATA	00000004 last_time_buffering_trigger
00400324 l     O ZI_DATA	00000004 data_ptr
00000000 l    df *ABS*	00000000 profiler.c
00000000 l    df *ABS*	00000000 circular_buffer.c
00000000 l    df *ABS*	00000000 spin1_api.c
00400344 l     O ZI_DATA	00000004 timer_phase
00400348 l     O ZI_DATA	00000004 resume_sync
0040034c l     O ZI_DATA	00000004 timer_tick
00400350 l     O ZI_DATA	00000004 paused
00400358 l     O ZI_DATA	00000320 task_queue
00400678 l     O ZI_DATA	00000004 run
00000000 l    df *ABS*	00000000 spin1_isr.c
00000000 l    df *ABS*	00000000 IF_curr_exp_stdp_mad_vogels_2011_additive_build.c
000053f8 l     F RO_DATA	00000008 __io_printf_from_arm
00005400 l     F RO_DATA	00000008 __spin1_memcpy_from_arm
00005408 l     F RO_DATA	00000008 __spin1_start_paused_from_arm
00005410 l     F RO_DATA	00000008 __spin1_msg_free_from_arm
00005418 l     F RO_DATA	00000008 __spin1_send_sdp_msg_from_arm
00005420 l     F RO_DATA	00000008 __sark_msg_free_from_arm
00005428 l     F RO_DATA	00000008 __sark_cpu_state_from_arm
00005430 l     F RO_DATA	00000008 __spin1_exit_from_arm
00400988 g     O ZI_DATA	00000004 old_vector
000001e8 g     F RO_DATA	00000000 sark_lock_get
0040014c g     O ZI_DATA	00000004 num_plastic_pre_synaptic_events
00004f48 g     F RO_DATA	00000030 sark_pre_main
000025b8 g     F RO_DATA	00000008 synaptogenesis_dynamics_formation_rule
000038e0 g     F RO_DATA	00000034 sark_shmsg_get
00004e68 g     F RO_DATA	0000000c spin1_get_core_id
00002fb0 g     F RO_DATA	0000006c _recording_buffer_state_data_write
00002464 g     F RO_DATA	00000098 weight_initialise
00005034 g     F RO_DATA	00000074 cc_fr_ready_isr
000001b8 g     F RO_DATA	00000000 spin1_int_enable
00000040 g       *ABS*	00000000 RO_FROM
00000800 g       *ABS*	00000000 STACK_SIZE
00002ad4 g     F RO_DATA	0000001c simulation_set_provenance_function
00000362 g     F RO_DATA	00000000 sark_bx
00004080 g     F RO_DATA	000000a0 sark_xfree
00004618 g     F RO_DATA	00000008 spin1_msg_free
00001ed4 g     F RO_DATA	00000004 neuron_model_set_global_neuron_params
00002a0c g     F RO_DATA	000000c8 simulation_initialise
000049b4 g     F RO_DATA	0000008c spin1_callback_on
00000258 g     F RO_DATA	00000000 sark_msg_cpy
00004f14 g     F RO_DATA	00000034 spin1_trigger_user_event
00400328 g     O ZI_DATA	00000004 profiler_output
00004d54 g     F RO_DATA	00000012 spin1_memcpy
00003e88 g     F RO_DATA	0000004c event_alloc
00004a78 g     F RO_DATA	0000006c clean_up
00400684 g     O ZI_DATA	00000004 inhibitory_response
00003870 g     F RO_DATA	0000001e sark_block_init
00005278 g     F RO_DATA	00000088 timer1_isr
00003f7c g     F RO_DATA	00000028 sark_fiq_han
00001888 g     F RO_DATA	00000004 _user_event_callback
00000010 g       *ABS*	00000000 APLX_ENTRY
000038c0 g     F RO_DATA	00000020 sark_msg_free
00001af4 g     F RO_DATA	00000010 get_dma_busy
00001b30 g     F RO_DATA	00000254 population_table_initialise
00000c2c g     F RO_DATA	00000010 synapses_get_saturation_count
00005340 g     F RO_DATA	00000068 soft_int_isr
000004b8 g     F RO_DATA	00000054 out_spikes_record
00004e58 g     F RO_DATA	0000000e spin1_send_mc_packet
0040067c g     O ZI_DATA	00000004 out_spikes
00004628 g     F RO_DATA	00000028 configure_dma_controller
00400898 g     O ZI_DATA	0000001c cancelled
00000470 g     F RO_DATA	00000048 out_spikes_is_empty
00000728 g     F RO_DATA	0000021c c_main
000030f0 g     F RO_DATA	00000124 recording_reset
00003c7c g     F RO_DATA	00000170 sark_int
00400064 g     O ZI_DATA	00000004 num_fixed_pre_synaptic_events
00004684 g     F RO_DATA	0000016c configure_vic
00000300 g     F RO_DATA	00000000 sark_int_han
00003dec g     F RO_DATA	00000058 event_wait
000006e0 g     F RO_DATA	00000048 resume_callback
00003c6a g     F RO_DATA	00000012 sark_wait
000001d8 g     F RO_DATA	00000000 spin1_mode_restore
0000057c g     F RO_DATA	00000164 timer_callback
000001a8 g     F RO_DATA	00000000 spin1_irq_disable
00003c5a g     F RO_DATA	00000010 sark_cmd_fill
000025d8 g     F RO_DATA	00000004 update_goal_posts
004000cc g     O ZI_DATA	00000001 any_spike
00001b04 g     F RO_DATA	0000001c do_rewiring
00003ee8 g     F RO_DATA	00000050 sark_vic_init
00005200 g     F RO_DATA	00000078 dma_done_fiqsr
0000016c g     F RO_DATA	00000000 cpu_shutdown
000012e8 g     F RO_DATA	00000340 neuron_do_timestep_update
00400330 g     O ZI_DATA	00000004 profiler_samples_remaining
000001d8 g     F RO_DATA	00000000 cpu_int_restore
0040098c g     O ZI_DATA	00000048 diagnostics
00001b20 g     F RO_DATA	00000010 received_any_spike
00410000 g       *ABS*	00000000 STACK_TOP
000034e4 g     F RO_DATA	00000210 recording_do_timestep_update
00400c3c g       ZI_DATA	00000000 HEAP_BASE
00003fa4 g     F RO_DATA	000000c4 sark_xalloc
00002784 g     F RO_DATA	00000038 _send_ok_response
004009d4 g     O ZI_DATA	00000004 old_enable
00400694 g     O ZI_DATA	00000200 tau_lookup
00002454 g     F RO_DATA	00000010 synapse_dynamics_get_plastic_saturation_count
00004650 g     F RO_DATA	00000034 configure_timer1
00000ac0 g     F RO_DATA	0000009c synapses_do_timestep_update
00001fa8 g     F RO_DATA	00000004 synapse_dynamics_print_plastic_synapses
00002e2c g     F RO_DATA	00000184 recording_record_and_notify
0000301c g     F RO_DATA	000000d4 recording_finalise
00000364 g     F RO_DATA	00000000 __gnu_thumb1_case_uqi
004009d8 g     O ZI_DATA	00000004 user_arg1
00003914 g     F RO_DATA	00000024 sark_shmsg_free
00000334 g     F RO_DATA	00000000 schedule
00002574 g     F RO_DATA	00000004 synaptogenesis_dynamics_initialise
000050e0 g     F RO_DATA	00000090 cc_tx_empty_isr
0000012c g     F RO_DATA	00000000 rt_error
00004ffc g     F RO_DATA	00000038 cc_rx_ready_fiqsr
00000ef4 g     F RO_DATA	00000004 neuron_reload_neuron_parameters
00004e74 g     F RO_DATA	0000000c spin1_get_chip_id
00400690 g     O ZI_DATA	00000004 plasticity_weight_region_data
00400008 g     O RW_DATA	00000004 fr_pkt_prio
0000384c g     F RO_DATA	00000010 sark_cpu_state
00002578 g     F RO_DATA	00000020 synaptogenesis_dynamics_rewire
00400354 g     O ZI_DATA	00000001 user_pending
00000944 g     F RO_DATA	0000017c synapses_initialise
000003cc g     F RO_DATA	00000030 out_spikes_reset
00003ed4 g     F RO_DATA	00000014 timer_cancel_init
00001fac g     F RO_DATA	00000134 synapse_dynamics_initialise
00001e50 g     F RO_DATA	00000084 population_table_get_first_address
0000188c g     F RO_DATA	0000010c _dma_complete_callback
00004c98 g     F RO_DATA	0000000c spin1_start_paused
00400004 g     O RW_DATA	00000004 mc_pkt_prio
00004f78 g     F RO_DATA	0000000a sark_post_main
000056d0 g       *ABS*	00000000 RW_FROM
000001a8 g     F RO_DATA	00000000 cpu_irq_disable
000036f4 g     F RO_DATA	00000088 profiler_init
00000000 g       RO_DATA	00000000 cpu_reset
000002d0 g     F RO_DATA	00000000 sark_div10
00004620 g     F RO_DATA	00000008 spin1_send_sdp_msg
00000108 g       RO_DATA	00000000 vic_error
00400000 g       *ABS*	00000000 DTCM_BASE
00000540 g     F RO_DATA	0000003c c_main_store_provenance_data
00400018 g     O ZI_DATA	00000004 last_rewiring_time
0000171c g     F RO_DATA	0000016c _setup_synaptic_dma_read
00004ca4 g     F RO_DATA	00000008 spin1_delay_us
0000275c g     F RO_DATA	00000020 simulation_handle_pause_resume
000037cc g     F RO_DATA	00000074 circular_buffer_initialize
000054c4 g     O RO_DATA	00000010 build_name
00004180 g     F RO_DATA	00000048 sark_io_buf_reset
00000360  w    F RO_DATA	00000000 sark_config
00400028 g     O ZI_DATA	00000001 rewiring
00004868 g     F RO_DATA	0000002c spin1_resume
00001ad4 g     F RO_DATA	00000010 get_circular_buffer
00001998 g     F RO_DATA	000000e8 spike_processing_initialise
00400894 g     O ZI_DATA	00000004 plasticity_trace_region_data
00400150 g     O ZI_DATA	00000004 plastic_saturation_count
00000c3c g     F RO_DATA	0000001c synapses_get_pre_synaptic_events
00003e44 g     F RO_DATA	0000002c event_pause
0000377c g     F RO_DATA	00000050 profiler_finalise
000025d0 g     F RO_DATA	00000008 is_fast
000054d4 g     O RO_DATA	00000004 build_date
0000020c g     F RO_DATA	00000000 sark_lock_free
00004068 g     F RO_DATA	00000018 sark_alloc
00400000 g       *ABS*	00000000 RW_BASE
00004d68 g     F RO_DATA	000000f0 spin1_send_packet
0000243c g     F RO_DATA	00000008 synapse_dynamics_get_intrinsic_bias
0040032c g     O ZI_DATA	00000004 profiler_count
00000010 g       ZI_DATA	00000000 RW_LENGTH
00002388 g     F RO_DATA	000000b4 synapse_dynamics_process_post_synaptic_event
000053a8 g     F RO_DATA	00000050 soft_int_fiqsr
000048c0 g     F RO_DATA	000000f4 dispatch
00000190 g     F RO_DATA	00000000 cpu_init_mode
00000268 g     F RO_DATA	00000000 sark_word_cpy
00000040 g       *ABS*	00000000 APLX_SIZE
0000017c g     F RO_DATA	00000000 cpu_sleep
0040000c g     O RW_DATA	00000004 fiq_event
004009dc g     O ZI_DATA	00000001 leadAp
004008b4 g     O ZI_DATA	0000003c sark
00001d84 g     F RO_DATA	000000cc population_table_get_next_address
00003a9c g     F RO_DATA	000000a0 sark_msg_send
000001e0 g     F RO_DATA	00000000 spin1_wfi
00003b3c g     F RO_DATA	00000050 sark_cmd_ver
00001628 g     F RO_DATA	00000078 neuron_add_inputs
0040068c g     O ZI_DATA	00000004 post_event_history
00400688 g     O ZI_DATA	00000004 excitatory_response
000001e0 g     F RO_DATA	00000000 cpu_wfi
00000c58 g     F RO_DATA	00000084 find_static_neuron_with_id
00003e70 g     F RO_DATA	00000018 event_stop
000025dc g     F RO_DATA	0000001c data_specification_get_data_address
00004824 g     F RO_DATA	00000044 resume
000001c8 g     F RO_DATA	00000000 cpu_int_disable
00003f38 g     F RO_DATA	00000044 sark_vic_set
00004120 g     F RO_DATA	0000001e sark_heap_init
000003fc g     F RO_DATA	00000074 out_spikes_initialize
000050a8 g     F RO_DATA	00000038 cc_fr_ready_fiqsr
00004a40 g     F RO_DATA	00000024 spin1_exit
004008f0 g     O ZI_DATA	00000098 event
000025c0 g     F RO_DATA	00000008 synaptogenesis_dynamics_elimination_rule
00005438 g       RO_DATA	00000000 __init_array_end
00400680 g     O ZI_DATA	00000004 time
00002678 g     F RO_DATA	0000000c data_specification_get_region
00002598 g     F RO_DATA	00000020 synaptic_row_restructure
00003bf4 g     F RO_DATA	00000066 sark_cmd_write
00004f84 g     F RO_DATA	00000078 cc_rx_ready_isr
00004e80 g     F RO_DATA	0000000a spin1_malloc
000047f0 g     F RO_DATA	00000034 spin1_pause
00000d10 g     F RO_DATA	00000078 add_static_neuron_with_id
000029b4 g     F RO_DATA	00000058 simulation_dma_transfer_done_callback_on
00003954  w    F RO_DATA	00000148 sark_init
00002444 g     F RO_DATA	00000010 synapse_dynamics_get_plastic_pre_synaptic_events
00000538 g     F RO_DATA	00000004 out_spikes_print
000020e0 g     F RO_DATA	000002a8 synapse_dynamics_process_plastic_synapses
00003840  w    F RO_DATA	0000000c rte_handler
00000374 g     F RO_DATA	00000000 sark_aplx
00004ae4 g     F RO_DATA	00000078 report_debug
000025c8 g     F RO_DATA	00000008 get_p_rew
00004374 g     F RO_DATA	000002a4 io_printf
004009e0 g     O ZI_DATA	00000148 dma_queue
00000234 g     F RO_DATA	00000000 sark_word_set
0000053c g     F RO_DATA	00000004 out_spike_info_print
00400b28 g     O ZI_DATA	00000004 old_select
000027bc g     F RO_DATA	000001b8 _simulation_control_scp_callback
00004b5c g     F RO_DATA	00000048 report_warns
00400030 g     O ZI_DATA	00000004 count_rewires
00005170 g     F RO_DATA	00000090 dma_done_isr
00400b2c g     O ZI_DATA	00000004 ticks
00002be0 g     F RO_DATA	0000006c _recording_dma_finished
00000330 g     F RO_DATA	00000000 null_int_han
00004cac g     F RO_DATA	000000a8 spin1_dma_transfer
00004e8c g     F RO_DATA	00000088 schedule_sysmode
00002974 g     F RO_DATA	00000040 simulation_sdp_callback_on
00000ef8 g     F RO_DATA	00000338 neuron_initialise
0000271c g     F RO_DATA	0000001c _simulation_sdp_callback_handler
00001f98 g     F RO_DATA	00000008 neuron_model_get_membrane_voltage
00002758 g     F RO_DATA	00000004 simulation_run
00005300 g     F RO_DATA	00000040 timer1_fiqsr
00002738 g     F RO_DATA	00000020 _simulation_dma_transfer_done_callback
00000220 g     F RO_DATA	00000000 sark_str_cpy
00004894 g     F RO_DATA	0000002c resume_wait
00400010 g       *ABS*	00000000 ZI_BASE
00000000 g       *ABS*	00000000 RO_BASE
00000cdc g     F RO_DATA	00000034 remove_static_neuron_at_offset
000001b8 g     F RO_DATA	00000000 cpu_int_enable
00400b30 g     O ZI_DATA	00000004 user_arg0
00000b5c g     F RO_DATA	000000d0 synapses_process_synaptic_row
00001fa4 g     F RO_DATA	00000004 neuron_model_print_parameters
0000385c g     F RO_DATA	00000014 sark_app_lead
00001ac0 g     F RO_DATA	00000014 spike_processing_get_buffer_overflows
00001ae4 g     F RO_DATA	00000010 set_dma_busy
00001f84 g     F RO_DATA	00000014 neuron_model_has_spiked
00001a80 g     F RO_DATA	00000040 spike_processing_finish_write
00000000 g       *ABS*	00000000 ITCM_BASE
00004ba4 g     F RO_DATA	000000f4 start
00005438 g       RO_DATA	00000000 __init_array_start
00400b34 g     O ZI_DATA	00000040 callback
00004a64 g     F RO_DATA	00000014 spin1_set_timer_tick_and_phase
004000d8 g     O ZI_DATA	00000004 number_of_rewires
00003938 g     F RO_DATA	0000001c sark_call_cpp_constructors
0040002c g     O ZI_DATA	00000004 rewiring_period
000041c8 g     F RO_DATA	000000ec io_put_char
0000277c g     F RO_DATA	00000008 simulation_ready_to_read
00001230 g     F RO_DATA	000000b8 neuron_store_neuron_parameters
000024fc g     F RO_DATA	00000078 timing_initialise
000025f8 g     F RO_DATA	00000080 data_specification_read_header
00001ed8 g     F RO_DATA	000000ac neuron_model_state_update
000016a0 g     F RO_DATA	0000007c _multicast_packet_received_callback
00001fa0 g     F RO_DATA	00000004 neuron_model_print_state_variables
000001c8 g     F RO_DATA	00000000 spin1_int_disable
00003b8c g     F RO_DATA	00000068 sark_cmd_read
00003214 g     F RO_DATA	000002d0 recording_initialize
00000c2c g       *ABS*	00000000 ZI_LENGTH
000056a0 g       RW_DATA	00000000 RO_LENGTH
00000d88 g     F RO_DATA	00000018 recording_done_callback
00003890 g     F RO_DATA	00000030 sark_msg_get
0000050c g     F RO_DATA	0000002c out_spikes_is_spike
000002bc g     F RO_DATA	00000000 sark_delay_us
00400b74 g     O ZI_DATA	000000c8 tx_packet_queue



Disassembly of section RO_DATA:

00000000 <cpu_reset>:
       0:	e59ff018 	ldr	pc, [pc, #24]	; 20 <reset_vec>

00000004 <undef>:
       4:	e59ff018 	ldr	pc, [pc, #24]	; 24 <undef_vec>
       8:	e59ff018 	ldr	pc, [pc, #24]	; 28 <svc_vec>
       c:	e59ff018 	ldr	pc, [pc, #24]	; 2c <pabt_vec>
      10:	e59ff018 	ldr	pc, [pc, #24]	; 30 <dabt_vec>
      14:	ebfffffa 	bl	4 <undef>
      18:	e51ffff0 	ldr	pc, [pc, #-4080]	; fffff030 <ROM_TOP+0x9ff7030>
      1c:	e59ff018 	ldr	pc, [pc, #24]	; 3c <fiq_vec>

00000020 <reset_vec>:
      20:	00000078 	.word	0x00000078

00000024 <undef_vec>:
      24:	000000d8 	.word	0x000000d8

00000028 <svc_vec>:
      28:	000000e0 	.word	0x000000e0

0000002c <pabt_vec>:
      2c:	000000e8 	.word	0x000000e8

00000030 <dabt_vec>:
      30:	000000f0 	.word	0x000000f0

00000034 <aplx_proc>:
      34:	00000375 	.word	0x00000375

00000038 <irq_vec>:
      38:	000000f8 	.word	0x000000f8

0000003c <fiq_vec>:
      3c:	00000100 	.word	0x00000100

00000040 <svc_stack>:
      40:	0060      	.short	0x0060

00000042 <irq_stack>:
      42:	0040      	.short	0x0040

00000044 <fiq_stack>:
      44:	0040      	.short	0x0040

00000046 <stack_size>:
      46:	0800      	.short	0x0800

00000048 <code_top>:
      48:	000056a0 	.word	0x000056a0

0000004c <heap_base>:
      4c:	00400c3c 	.word	0x00400c3c

00000050 <stack_top>:
      50:	00410000 	.word	0x00410000

00000054 <stack_fill>:
      54:	deaddead 	.word	0xdeaddead

00000058 <num_msgs>:
      58:	04          	.byte	0x04

00000059 <sark_slot>:
      59:	0f          	.byte	0x0f

0000005a <num_events>:
      5a:	10          	.byte	0x10

0000005b <api>:
	...

0000005c <app_id>:
	...

0000005d <app_flags>:
	...

0000005e <__PAD>:
	...

00000060 <event_vec>:
	...

00000078 <reset_entry>:
      78:	e24f1060 	sub	r1, pc, #96	; 0x60
      7c:	e1c103bc 	strh	r0, [r1, #60]	; 0x3c
      80:	e28f0048 	add	r0, pc, #72	; 0x48
      84:	e5810000 	str	r0, [r1]
      88:	e59f00f4 	ldr	r0, [pc, #244]	; 184 <DMA_CRCT+0x4>
      8c:	ee010f10 	mcr	15, 0, r0, cr1, cr0, {0}
      90:	e321f0d3 	msr	CPSR_c, #211	; 0xd3
      94:	e3a0d902 	mov	sp, #32768	; 0x8000
      98:	fa0000b0 	blx	360 <sark_config>
      9c:	e51fd054 	ldr	sp, [pc, #-84]	; 50 <stack_top>
      a0:	e15f26b2 	ldrh	r2, [pc, #-98]	; 46 <stack_size>
      a4:	e51f1058 	ldr	r1, [pc, #-88]	; 54 <stack_fill>
      a8:	e04d0002 	sub	r0, sp, r2
      ac:	eb000060 	bl	234 <sark_word_set>
      b0:	e1a0000d 	mov	r0, sp
      b4:	fa000e26 	blx	3954 <sark_init>
      b8:	e121f000 	msr	CPSR_c, r0
      bc:	fb000ee9 	blx	3c6a <sark_wait>
      c0:	fa0013a0 	blx	4f48 <sark_pre_main>
      c4:	eb000197 	bl	728 <c_main>
      c8:	fa0013aa 	blx	4f78 <sark_post_main>
      cc:	eb00002a 	bl	17c <cpu_sleep>

000000d0 <reset_error>:
      d0:	e3a00001 	mov	r0, #1
      d4:	ea000014 	b	12c <rt_error>

000000d8 <undef_error>:
      d8:	e3a0b002 	mov	fp, #2
      dc:	ea00000c 	b	114 <exc_error>

000000e0 <svc_error>:
      e0:	e3a0b003 	mov	fp, #3
      e4:	ea00000a 	b	114 <exc_error>

000000e8 <pabt_error>:
      e8:	e3a0b004 	mov	fp, #4
      ec:	ea000008 	b	114 <exc_error>

000000f0 <dabt_error>:
      f0:	e3a0b005 	mov	fp, #5
      f4:	ea000006 	b	114 <exc_error>

000000f8 <irq_error>:
      f8:	e3a0b006 	mov	fp, #6
      fc:	ea000004 	b	114 <exc_error>

00000100 <fiq_error>:
     100:	e3a0b007 	mov	fp, #7
     104:	ea000002 	b	114 <exc_error>

00000108 <vic_error>:
     108:	e3a0b008 	mov	fp, #8
     10c:	e3a0042f 	mov	r0, #788529152	; 0x2f000000
     110:	e5900030 	ldr	r0, [r0, #48]	; 0x30

00000114 <exc_error>:
     114:	e1a0a00e 	mov	sl, lr
     118:	e14f8000 	mrs	r8, SPSR
     11c:	e38890c0 	orr	r9, r8, #192	; 0xc0
     120:	e3c99020 	bic	r9, r9, #32
     124:	e12ff009 	msr	CPSR_fsxc, r9
     128:	ea000002 	b	138 <cc_error>

0000012c <rt_error>:
     12c:	e1a0b000 	mov	fp, r0
     130:	e10f8000 	mrs	r8, CPSR
     134:	e1a0a00e 	mov	sl, lr

00000138 <cc_error>:
     138:	e59fc048 	ldr	ip, [pc, #72]	; 188 <DMA_CRCT+0x8>
     13c:	e59cc000 	ldr	ip, [ip]
     140:	e3a09080 	mov	r9, #128	; 0x80
     144:	e59fe040 	ldr	lr, [pc, #64]	; 18c <DMA_CRCT+0xc>
     148:	e02ee99c 	mla	lr, ip, r9, lr
     14c:	e1a0900d 	mov	r9, sp
     150:	e88e07ff 	stm	lr, {r0, r1, r2, r3, r4, r5, r6, r7, r8, r9, sl}
     154:	e5ceb02c 	strb	fp, [lr, #44]	; 0x2c
     158:	e3a08002 	mov	r8, #2
     15c:	e5ce802e 	strb	r8, [lr, #46]	; 0x2e
     160:	e1a0000b 	mov	r0, fp
     164:	e321f0d3 	msr	CPSR_c, #211	; 0xd3
     168:	fa000db4 	blx	3840 <rte_handler>

0000016c <cpu_shutdown>:
     16c:	e321f0d3 	msr	CPSR_c, #211	; 0xd3
     170:	e3a0042f 	mov	r0, #788529152	; 0x2f000000
     174:	e3e01000 	mvn	r1, #0
     178:	e5801014 	str	r1, [r0, #20]

0000017c <cpu_sleep>:
     17c:	ee070f90 	mcr	15, 0, r0, cr7, cr0, {4}
     180:	eafffffd 	b	17c <cpu_sleep>
     184:	00001f7e 	.word	0x00001f7e
     188:	004008b4 	.word	0x004008b4
     18c:	e5007000 	.word	0xe5007000

00000190 <cpu_init_mode>:
     190:	e10f3000 	mrs	r3, CPSR
     194:	e121f001 	msr	CPSR_c, r1
     198:	e1a0d000 	mov	sp, r0
     19c:	e12ff003 	msr	CPSR_fsxc, r3
     1a0:	e0400102 	sub	r0, r0, r2, lsl #2
     1a4:	e12fff1e 	bx	lr

000001a8 <cpu_irq_disable>:
     1a8:	e10f0000 	mrs	r0, CPSR
     1ac:	e3801080 	orr	r1, r0, #128	; 0x80
     1b0:	e121f001 	msr	CPSR_c, r1
     1b4:	e12fff1e 	bx	lr

000001b8 <cpu_int_enable>:
     1b8:	e10f0000 	mrs	r0, CPSR
     1bc:	e3c010c0 	bic	r1, r0, #192	; 0xc0
     1c0:	e121f001 	msr	CPSR_c, r1
     1c4:	e12fff1e 	bx	lr

000001c8 <cpu_int_disable>:
     1c8:	e10f0000 	mrs	r0, CPSR
     1cc:	e38010c0 	orr	r1, r0, #192	; 0xc0
     1d0:	e121f001 	msr	CPSR_c, r1
     1d4:	e12fff1e 	bx	lr

000001d8 <cpu_int_restore>:
     1d8:	e12ff000 	msr	CPSR_fsxc, r0
     1dc:	e12fff1e 	bx	lr

000001e0 <cpu_wfi>:
     1e0:	ee070f90 	mcr	15, 0, r0, cr7, cr0, {4}
     1e4:	e12fff1e 	bx	lr

000001e8 <sark_lock_get>:
     1e8:	e3a0c4e2 	mov	ip, #-503316480	; 0xe2000000
     1ec:	e08cc100 	add	ip, ip, r0, lsl #2
     1f0:	e10f0000 	mrs	r0, CPSR
     1f4:	e38010c0 	orr	r1, r0, #192	; 0xc0
     1f8:	e121f001 	msr	CPSR_c, r1

000001fc <lg1>:
     1fc:	e59c1100 	ldr	r1, [ip, #256]	; 0x100
     200:	e3110102 	tst	r1, #-2147483648	; 0x80000000
     204:	1afffffc 	bne	1fc <lg1>
     208:	e12fff1e 	bx	lr

0000020c <sark_lock_free>:
     20c:	e3a0c4e2 	mov	ip, #-503316480	; 0xe2000000
     210:	e08c1101 	add	r1, ip, r1, lsl #2
     214:	e5911180 	ldr	r1, [r1, #384]	; 0x180
     218:	e121f000 	msr	CPSR_c, r0
     21c:	e12fff1e 	bx	lr

00000220 <sark_str_cpy>:
     220:	e4d12001 	ldrb	r2, [r1], #1
     224:	e3520000 	cmp	r2, #0
     228:	e4c02001 	strb	r2, [r0], #1
     22c:	1afffffb 	bne	220 <sark_str_cpy>
     230:	e12fff1e 	bx	lr

00000234 <sark_word_set>:
     234:	e1a03001 	mov	r3, r1

00000238 <ws1>:
     238:	e2522010 	subs	r2, r2, #16
     23c:	28a0000a 	stmiacs	r0!, {r1, r3}
     240:	28a0000a 	stmiacs	r0!, {r1, r3}
     244:	2afffffb 	bcs	238 <ws1>
     248:	e1b02e82 	lsls	r2, r2, #29
     24c:	28a0000a 	stmiacs	r0!, {r1, r3}
     250:	48a00002 	stmiami	r0!, {r1}
     254:	e12fff1e 	bx	lr

00000258 <sark_msg_cpy>:
     258:	e2800004 	add	r0, r0, #4
     25c:	e2811004 	add	r1, r1, #4
     260:	e1d120b0 	ldrh	r2, [r1]
     264:	e2822004 	add	r2, r2, #4

00000268 <sark_word_cpy>:
     268:	e3120003 	tst	r2, #3
     26c:	13c22003 	bicne	r2, r2, #3
     270:	12822004 	addne	r2, r2, #4
     274:	e92d4010 	push	{r4, lr}
     278:	e2522020 	subs	r2, r2, #32
     27c:	3a000005 	bcc	298 <wc2>

00000280 <wc1>:
     280:	e8b15018 	ldm	r1!, {r3, r4, ip, lr}
     284:	e8a05018 	stmia	r0!, {r3, r4, ip, lr}
     288:	e8b15018 	ldm	r1!, {r3, r4, ip, lr}
     28c:	e8a05018 	stmia	r0!, {r3, r4, ip, lr}
     290:	e2522020 	subs	r2, r2, #32
     294:	2afffff9 	bcs	280 <wc1>

00000298 <wc2>:
     298:	e1b0ce02 	lsls	ip, r2, #28
     29c:	28b15018 	ldmcs	r1!, {r3, r4, ip, lr}
     2a0:	28a05018 	stmiacs	r0!, {r3, r4, ip, lr}
     2a4:	48b10018 	ldmmi	r1!, {r3, r4}
     2a8:	48a00018 	stmiami	r0!, {r3, r4}
     2ac:	e1b0cf02 	lsls	ip, r2, #30
     2b0:	24913004 	ldrcs	r3, [r1], #4
     2b4:	24803004 	strcs	r3, [r0], #4
     2b8:	e8bd8010 	pop	{r4, pc}

000002bc <sark_delay_us>:
     2bc:	4903      	ldr	r1, [pc, #12]	; (2cc <delay1+0x8>)
     2be:	8809      	ldrh	r1, [r1, #0]
     2c0:	4341      	muls	r1, r0
     2c2:	0888      	lsrs	r0, r1, #2

000002c4 <delay1>:
     2c4:	3801      	subs	r0, #1
     2c6:	d2fd      	bcs.n	2c4 <delay1>
     2c8:	4770      	bx	lr
     2ca:	0000      	.short	0x0000
     2cc:	004008e4 	.word	0x004008e4

000002d0 <sark_div10>:
     2d0:	e241200a 	sub	r2, r1, #10
     2d4:	e0411121 	sub	r1, r1, r1, lsr #2
     2d8:	e0811221 	add	r1, r1, r1, lsr #4
     2dc:	e0811421 	add	r1, r1, r1, lsr #8
     2e0:	e0811821 	add	r1, r1, r1, lsr #16
     2e4:	e1a011a1 	lsr	r1, r1, #3
     2e8:	e0813101 	add	r3, r1, r1, lsl #2
     2ec:	e0522083 	subs	r2, r2, r3, lsl #1
     2f0:	52811001 	addpl	r1, r1, #1
     2f4:	4282200a 	addmi	r2, r2, #10
     2f8:	e8800006 	stm	r0, {r1, r2}
     2fc:	e12fff1e 	bx	lr

00000300 <sark_int_han>:
     300:	e92d500f 	push	{r0, r1, r2, r3, ip, lr}
     304:	e24e0004 	sub	r0, lr, #4
     308:	e14fc000 	mrs	ip, SPSR
     30c:	e321f01f 	msr	CPSR_c, #31
     310:	e92d5000 	push	{ip, lr}
     314:	fa000e58 	blx	3c7c <sark_int>
     318:	e8bd5000 	pop	{ip, lr}
     31c:	e321f092 	msr	CPSR_c, #146	; 0x92
     320:	e16ff00c 	msr	SPSR_fsxc, ip
     324:	e3a0042f 	mov	r0, #788529152	; 0x2f000000
     328:	e5800030 	str	r0, [r0, #48]	; 0x30
     32c:	e8bd500f 	pop	{r0, r1, r2, r3, ip, lr}

00000330 <null_int_han>:
     330:	e25ef004 	subs	pc, lr, #4

00000334 <schedule>:
     334:	e92d5000 	push	{ip, lr}
     338:	e10fc000 	mrs	ip, CPSR
     33c:	e3cce01f 	bic	lr, ip, #31
     340:	e38ee01f 	orr	lr, lr, #31
     344:	e121f00e 	msr	CPSR_c, lr
     348:	e92d5000 	push	{ip, lr}
     34c:	fa0012ce 	blx	4e8c <schedule_sysmode>
     350:	e8bd5000 	pop	{ip, lr}
     354:	e121f00c 	msr	CPSR_c, ip
     358:	e8bd5000 	pop	{ip, lr}
     35c:	e12fff1e 	bx	lr

00000360 <sark_config>:
     360:	4770      	bx	lr

00000362 <sark_bx>:
     362:	4700      	bx	r0

00000364 <__gnu_thumb1_case_uqi>:
     364:	468c      	mov	ip, r1
     366:	4671      	mov	r1, lr
     368:	3901      	subs	r1, #1
     36a:	5c09      	ldrb	r1, [r1, r0]
     36c:	0049      	lsls	r1, r1, #1
     36e:	448e      	add	lr, r1
     370:	4661      	mov	r1, ip
     372:	4770      	bx	lr

00000374 <sark_aplx>:
     374:	b5f2      	push	{r1, r4, r5, r6, r7, lr}
     376:	4905      	ldr	r1, [pc, #20]	; (38c <aplx_buffer>)
     378:	a605      	add	r6, pc, #20	; (adr r6, 390 <aplx_loader>)
     37a:	2740      	movs	r7, #64	; 0x40

0000037c <aplx_l0>:
     37c:	ce3c      	ldmia	r6!, {r2, r3, r4, r5}
     37e:	c13c      	stmia	r1!, {r2, r3, r4, r5}
     380:	3f10      	subs	r7, #16
     382:	d1fb      	bne.n	37c <aplx_l0>
     384:	1c04      	adds	r4, r0, #0
     386:	393f      	subs	r1, #63	; 0x3f
     388:	4708      	bx	r1
	...

0000038c <aplx_buffer>:
     38c:	00007fc0 	.word	0x00007fc0

00000390 <aplx_loader>:
     390:	cc0f      	ldmia	r4!, {r0, r1, r2, r3}
     392:	2801      	cmp	r0, #1
     394:	d008      	beq.n	3a8 <aplx_copy>
     396:	2802      	cmp	r0, #2
     398:	d004      	beq.n	3a4 <aplx_rcopy>
     39a:	2803      	cmp	r0, #3
     39c:	d00b      	beq.n	3b6 <aplx_fill>
     39e:	2804      	cmp	r0, #4
     3a0:	d011      	beq.n	3c6 <aplx_exec>
     3a2:	bdf2      	pop	{r1, r4, r5, r6, r7, pc}

000003a4 <aplx_rcopy>:
     3a4:	1912      	adds	r2, r2, r4
     3a6:	3a10      	subs	r2, #16

000003a8 <aplx_copy>:
     3a8:	cae1      	ldmia	r2!, {r0, r5, r6, r7}
     3aa:	c1e1      	stmia	r1!, {r0, r5, r6, r7}
     3ac:	cae1      	ldmia	r2!, {r0, r5, r6, r7}
     3ae:	c1e1      	stmia	r1!, {r0, r5, r6, r7}
     3b0:	3b20      	subs	r3, #32
     3b2:	d8f9      	bhi.n	3a8 <aplx_copy>
     3b4:	e7ec      	b.n	390 <aplx_loader>

000003b6 <aplx_fill>:
     3b6:	1c1d      	adds	r5, r3, #0
     3b8:	1c1e      	adds	r6, r3, #0
     3ba:	1c1f      	adds	r7, r3, #0

000003bc <aplx_l1>:
     3bc:	c1e8      	stmia	r1!, {r3, r5, r6, r7}
     3be:	c1e8      	stmia	r1!, {r3, r5, r6, r7}
     3c0:	3a20      	subs	r2, #32
     3c2:	d8fb      	bhi.n	3bc <aplx_l1>
     3c4:	e7e4      	b.n	390 <aplx_loader>

000003c6 <aplx_exec>:
     3c6:	9800      	ldr	r0, [sp, #0]
     3c8:	4788      	blx	r1
     3ca:	e7e1      	b.n	390 <aplx_loader>

000003cc <out_spikes_reset>:
     3cc:	e59f3020 	ldr	r3, [pc, #32]	; 3f4 <out_spikes_reset+0x28>
     3d0:	e5932000 	ldr	r2, [r3]
     3d4:	e59f301c 	ldr	r3, [pc, #28]	; 3f8 <out_spikes_reset+0x2c>
     3d8:	e5933000 	ldr	r3, [r3]
     3dc:	e0823103 	add	r3, r2, r3, lsl #2
     3e0:	e1530002 	cmp	r3, r2
     3e4:	13a01000 	movne	r1, #0
     3e8:	15231004 	strne	r1, [r3, #-4]!
     3ec:	1afffffb 	bne	3e0 <out_spikes_reset+0x14>
     3f0:	e12fff1e 	bx	lr
     3f4:	0040067c 	.word	0x0040067c
     3f8:	00400010 	.word	0x00400010

000003fc <out_spikes_initialize>:
     3fc:	e92d4038 	push	{r3, r4, r5, lr}
     400:	e310001f 	tst	r0, #31
     404:	e1a032a0 	lsr	r3, r0, #5
     408:	12833001 	addne	r3, r3, #1
     40c:	e59f504c 	ldr	r5, [pc, #76]	; 460 <MC_TABLE_SIZE+0x60>
     410:	e2830001 	add	r0, r3, #1
     414:	e1a00100 	lsl	r0, r0, #2
     418:	e5853000 	str	r3, [r5]
     41c:	fa001297 	blx	4e80 <spin1_malloc>
     420:	e3500000 	cmp	r0, #0
     424:	e1a04000 	mov	r4, r0
     428:	e5850004 	str	r0, [r5, #4]
     42c:	1a000005 	bne	448 <MC_TABLE_SIZE+0x48>
     430:	e3a00002 	mov	r0, #2
     434:	e59f1028 	ldr	r1, [pc, #40]	; 464 <MC_TABLE_SIZE+0x64>
     438:	e59f2028 	ldr	r2, [pc, #40]	; 468 <MC_TABLE_SIZE+0x68>
     43c:	fa000fcc 	blx	4374 <io_printf>
     440:	e1a00004 	mov	r0, r4
     444:	e8bd8038 	pop	{r3, r4, r5, pc}
     448:	e59f301c 	ldr	r3, [pc, #28]	; 46c <MC_TABLE_SIZE+0x6c>
     44c:	e2804004 	add	r4, r0, #4
     450:	e5834000 	str	r4, [r3]
     454:	ebffffdc 	bl	3cc <out_spikes_reset>
     458:	e3a00001 	mov	r0, #1
     45c:	e8bd8038 	pop	{r3, r4, r5, pc}
     460:	00400010 	.word	0x00400010
     464:	0000551f 	.word	0x0000551f
     468:	00001b6d 	.word	0x00001b6d
     46c:	0040067c 	.word	0x0040067c

00000470 <out_spikes_is_empty>:
     470:	e59f3038 	ldr	r3, [pc, #56]	; 4b0 <out_spikes_is_empty+0x40>
     474:	e3a00001 	mov	r0, #1
     478:	e5932000 	ldr	r2, [r3]
     47c:	e59f3030 	ldr	r3, [pc, #48]	; 4b4 <out_spikes_is_empty+0x44>
     480:	e5933000 	ldr	r3, [r3]
     484:	e2433001 	sub	r3, r3, #1
     488:	e3730001 	cmn	r3, #1
     48c:	0a000006 	beq	4ac <out_spikes_is_empty+0x3c>
     490:	e3500000 	cmp	r0, #0
     494:	17920103 	ldrne	r0, [r2, r3, lsl #2]
     498:	116f0f10 	clzne	r0, r0
     49c:	11a002a0 	lsrne	r0, r0, #5
     4a0:	e2000001 	and	r0, r0, #1
     4a4:	e2433001 	sub	r3, r3, #1
     4a8:	eafffff6 	b	488 <out_spikes_is_empty+0x18>
     4ac:	e12fff1e 	bx	lr
     4b0:	0040067c 	.word	0x0040067c
     4b4:	00400010 	.word	0x00400010

000004b8 <out_spikes_record>:
     4b8:	e92d40f8 	push	{r3, r4, r5, r6, r7, lr}
     4bc:	e1a06000 	mov	r6, r0
     4c0:	e1a07001 	mov	r7, r1
     4c4:	e1a04002 	mov	r4, r2
     4c8:	e1a05003 	mov	r5, r3
     4cc:	ebffffe7 	bl	470 <out_spikes_is_empty>
     4d0:	e3500000 	cmp	r0, #0
     4d4:	1a000009 	bne	500 <out_spikes_record+0x48>
     4d8:	e59f3028 	ldr	r3, [pc, #40]	; 508 <out_spikes_record+0x50>
     4dc:	e2842001 	add	r2, r4, #1
     4e0:	e5931004 	ldr	r1, [r3, #4]
     4e4:	e1a00006 	mov	r0, r6
     4e8:	e5817000 	str	r7, [r1]
     4ec:	e1a02102 	lsl	r2, r2, #2
     4f0:	e1a03005 	mov	r3, r5
     4f4:	eb000a4c 	bl	2e2c <recording_record_and_notify>
     4f8:	e3a00001 	mov	r0, #1
     4fc:	e8bd80f8 	pop	{r3, r4, r5, r6, r7, pc}
     500:	e3a00000 	mov	r0, #0
     504:	e8bd80f8 	pop	{r3, r4, r5, r6, r7, pc}
     508:	00400010 	.word	0x00400010

0000050c <out_spikes_is_spike>:
     50c:	e59f3020 	ldr	r3, [pc, #32]	; 534 <out_spikes_is_spike+0x28>
     510:	e200201f 	and	r2, r0, #31
     514:	e5933000 	ldr	r3, [r3]
     518:	e1a002a0 	lsr	r0, r0, #5
     51c:	e7933100 	ldr	r3, [r3, r0, lsl #2]
     520:	e3a01001 	mov	r1, #1
     524:	e0133211 	ands	r3, r3, r1, lsl r2
     528:	11a00001 	movne	r0, r1
     52c:	03a00000 	moveq	r0, #0
     530:	e12fff1e 	bx	lr
     534:	0040067c 	.word	0x0040067c

00000538 <out_spikes_print>:
     538:	e12fff1e 	bx	lr

0000053c <out_spike_info_print>:
     53c:	e12fff1e 	bx	lr

00000540 <c_main_store_provenance_data>:
     540:	e92d4010 	push	{r4, lr}
     544:	e1a04000 	mov	r4, r0
     548:	eb0001bb 	bl	c3c <synapses_get_pre_synaptic_events>
     54c:	e5840000 	str	r0, [r4]
     550:	eb0001b5 	bl	c2c <synapses_get_saturation_count>
     554:	e5840004 	str	r0, [r4, #4]
     558:	eb000558 	bl	1ac0 <spike_processing_get_buffer_overflows>
     55c:	e59f3014 	ldr	r3, [pc, #20]	; 578 <c_main_store_provenance_data+0x38>
     560:	e5933000 	ldr	r3, [r3]
     564:	e584300c 	str	r3, [r4, #12]
     568:	e5840008 	str	r0, [r4, #8]
     56c:	eb0007b8 	bl	2454 <synapse_dynamics_get_plastic_saturation_count>
     570:	e5840010 	str	r0, [r4, #16]
     574:	e8bd8010 	pop	{r4, pc}
     578:	00400680 	.word	0x00400680

0000057c <timer_callback>:
     57c:	e92d40f8 	push	{r3, r4, r5, r6, r7, lr}
     580:	e59f614c 	ldr	r6, [pc, #332]	; 6d4 <ETH_TX_SIZE+0xd4>
     584:	e59f414c 	ldr	r4, [pc, #332]	; 6d8 <ETH_TX_SIZE+0xd8>
     588:	e5963000 	ldr	r3, [r6]
     58c:	e5942000 	ldr	r2, [r4]
     590:	e5961004 	ldr	r1, [r6, #4]
     594:	e2822001 	add	r2, r2, #1
     598:	e2833001 	add	r3, r3, #1
     59c:	e3510001 	cmp	r1, #1
     5a0:	e1a07000 	mov	r7, r0
     5a4:	e5842000 	str	r2, [r4]
     5a8:	e5863000 	str	r3, [r6]
     5ac:	e1a05006 	mov	r5, r6
     5b0:	0a000013 	beq	604 <ETH_TX_SIZE+0x4>
     5b4:	e5961008 	ldr	r1, [r6, #8]
     5b8:	e1520001 	cmp	r2, r1
     5bc:	3a000010 	bcc	604 <ETH_TX_SIZE+0x4>
     5c0:	e59f0114 	ldr	r0, [pc, #276]	; 6dc <ETH_TX_SIZE+0xdc>
     5c4:	eb000864 	bl	275c <simulation_handle_pause_resume>
     5c8:	eb000803 	bl	25dc <data_specification_get_data_address>
     5cc:	e1a01000 	mov	r1, r0
     5d0:	e3a00001 	mov	r0, #1
     5d4:	eb000827 	bl	2678 <data_specification_get_region>
     5d8:	eb000314 	bl	1230 <neuron_store_neuron_parameters>
     5dc:	e596300c 	ldr	r3, [r6, #12]
     5e0:	e3530000 	cmp	r3, #0
     5e4:	0a000000 	beq	5ec <SPARE_SIZE+0x4c>
     5e8:	eb000a8b 	bl	301c <recording_finalise>
     5ec:	eb000c62 	bl	377c <profiler_finalise>
     5f0:	e5943000 	ldr	r3, [r4]
     5f4:	e2433001 	sub	r3, r3, #1
     5f8:	e5843000 	str	r3, [r4]
     5fc:	e8bd40f8 	pop	{r3, r4, r5, r6, r7, lr}
     600:	ea00085d 	b	277c <simulation_ready_to_read>
     604:	e5d52010 	ldrb	r2, [r5, #16]
     608:	e3520000 	cmp	r2, #0
     60c:	0a000023 	beq	6a0 <ETH_TX_SIZE+0xa0>
     610:	e59f20bc 	ldr	r2, [pc, #188]	; 6d4 <ETH_TX_SIZE+0xd4>
     614:	e5922014 	ldr	r2, [r2, #20]
     618:	e1530002 	cmp	r3, r2
     61c:	aa000003 	bge	630 <ETH_TX_SIZE+0x30>
     620:	eb0007ea 	bl	25d0 <is_fast>
     624:	e3500000 	cmp	r0, #0
     628:	1a000003 	bne	63c <ETH_TX_SIZE+0x3c>
     62c:	ea00001b 	b	6a0 <ETH_TX_SIZE+0xa0>
     630:	eb0007e6 	bl	25d0 <is_fast>
     634:	e3500000 	cmp	r0, #0
     638:	1afffff8 	bne	620 <ETH_TX_SIZE+0x20>
     63c:	e5940000 	ldr	r0, [r4]
     640:	eb0007e4 	bl	25d8 <update_goal_posts>
     644:	e3a03000 	mov	r3, #0
     648:	e5853000 	str	r3, [r5]
     64c:	eb0007df 	bl	25d0 <is_fast>
     650:	e3500000 	cmp	r0, #0
     654:	159f3078 	ldrne	r3, [pc, #120]	; 6d4 <ETH_TX_SIZE+0xd4>
     658:	03a00001 	moveq	r0, #1
     65c:	15930014 	ldrne	r0, [r3, #20]
     660:	eb000527 	bl	1b04 <do_rewiring>
     664:	ebfffed7 	bl	1c8 <cpu_int_disable>
     668:	e1a06000 	mov	r6, r0
     66c:	eb000520 	bl	1af4 <get_dma_busy>
     670:	e2501000 	subs	r1, r0, #0
     674:	1a000004 	bne	68c <ETH_TX_SIZE+0x8c>
     678:	fa001225 	blx	4f14 <spin1_trigger_user_event>
     67c:	e3500000 	cmp	r0, #0
     680:	0a000001 	beq	68c <ETH_TX_SIZE+0x8c>
     684:	e3a00001 	mov	r0, #1
     688:	eb000515 	bl	1ae4 <set_dma_busy>
     68c:	e1a00006 	mov	r0, r6
     690:	ebfffed0 	bl	1d8 <cpu_int_restore>
     694:	e5953018 	ldr	r3, [r5, #24]
     698:	e2833001 	add	r3, r3, #1
     69c:	e5853018 	str	r3, [r5, #24]
     6a0:	e5940000 	ldr	r0, [r4]
     6a4:	eb000105 	bl	ac0 <synapses_do_timestep_update>
     6a8:	e5940000 	ldr	r0, [r4]
     6ac:	e1a01007 	mov	r1, r7
     6b0:	e595201c 	ldr	r2, [r5, #28]
     6b4:	eb00030b 	bl	12e8 <neuron_do_timestep_update>
     6b8:	e595300c 	ldr	r3, [r5, #12]
     6bc:	e3530000 	cmp	r3, #0
     6c0:	08bd80f8 	popeq	{r3, r4, r5, r6, r7, pc}
     6c4:	e59f300c 	ldr	r3, [pc, #12]	; 6d8 <ETH_TX_SIZE+0xd8>
     6c8:	e5930000 	ldr	r0, [r3]
     6cc:	e8bd40f8 	pop	{r3, r4, r5, r6, r7, lr}
     6d0:	ea000b83 	b	34e4 <recording_do_timestep_update>
     6d4:	00400018 	.word	0x00400018
     6d8:	00400680 	.word	0x00400680
     6dc:	000006e0 	.word	0x000006e0

000006e0 <resume_callback>:
     6e0:	e92d4008 	push	{r3, lr}
     6e4:	eb000a81 	bl	30f0 <recording_reset>
     6e8:	eb0007bb 	bl	25dc <data_specification_get_data_address>
     6ec:	e1a01000 	mov	r1, r0
     6f0:	e3a00001 	mov	r0, #1
     6f4:	eb0007df 	bl	2678 <data_specification_get_region>
     6f8:	eb0001fd 	bl	ef4 <neuron_reload_neuron_parameters>
     6fc:	e3500000 	cmp	r0, #0
     700:	18bd8008 	popne	{r3, pc}
     704:	e3a00002 	mov	r0, #2
     708:	e59f1010 	ldr	r1, [pc, #16]	; 720 <resume_callback+0x40>
     70c:	e59f2010 	ldr	r2, [pc, #16]	; 724 <resume_callback+0x44>
     710:	fa000f17 	blx	4374 <io_printf>
     714:	e3a0000d 	mov	r0, #13
     718:	e8bd4008 	pop	{r3, lr}
     71c:	eafffe82 	b	12c <rt_error>
     720:	0000551f 	.word	0x0000551f
     724:	00001bc5 	.word	0x00001bc5

00000728 <c_main>:
     728:	e92d40f0 	push	{r4, r5, r6, r7, lr}
     72c:	e24dd02c 	sub	sp, sp, #44	; 0x2c
     730:	eb0007a9 	bl	25dc <data_specification_get_data_address>
     734:	e59f51f4 	ldr	r5, [pc, #500]	; 930 <STACK_SIZE+0x130>
     738:	e1a04000 	mov	r4, r0
     73c:	eb0007ad 	bl	25f8 <data_specification_read_header>
     740:	e3500000 	cmp	r0, #0
     744:	0a00006a 	beq	8f4 <STACK_SIZE+0xf4>
     748:	e1a01004 	mov	r1, r4
     74c:	e3a00000 	mov	r0, #0
     750:	eb0007c8 	bl	2678 <data_specification_get_region>
     754:	e2853004 	add	r3, r5, #4
     758:	e58d3000 	str	r3, [sp]
     75c:	e3a06001 	mov	r6, #1
     760:	e3a03000 	mov	r3, #0
     764:	e58d3008 	str	r3, [sp, #8]
     768:	e58d6004 	str	r6, [sp, #4]
     76c:	e59f11c0 	ldr	r1, [pc, #448]	; 934 <STACK_SIZE+0x134>
     770:	e285201c 	add	r2, r5, #28
     774:	e2853008 	add	r3, r5, #8
     778:	eb0008a3 	bl	2a0c <simulation_initialise>
     77c:	e3500000 	cmp	r0, #0
     780:	0a00005b 	beq	8f4 <STACK_SIZE+0xf4>
     784:	e1a01004 	mov	r1, r4
     788:	e3a00007 	mov	r0, #7
     78c:	eb0007b9 	bl	2678 <data_specification_get_region>
     790:	e1a01000 	mov	r1, r0
     794:	e59f019c 	ldr	r0, [pc, #412]	; 938 <STACK_SIZE+0x138>
     798:	eb0008cd 	bl	2ad4 <simulation_set_provenance_function>
     79c:	e1a01004 	mov	r1, r4
     7a0:	e3a00006 	mov	r0, #6
     7a4:	eb0007b3 	bl	2678 <data_specification_get_region>
     7a8:	e285100c 	add	r1, r5, #12
     7ac:	eb000a98 	bl	3214 <recording_initialize>
     7b0:	e3500000 	cmp	r0, #0
     7b4:	0a00004e 	beq	8f4 <STACK_SIZE+0xf4>
     7b8:	e1a01004 	mov	r1, r4
     7bc:	e1a00006 	mov	r0, r6
     7c0:	eb0007ac 	bl	2678 <data_specification_get_region>
     7c4:	e2853020 	add	r3, r5, #32
     7c8:	e58d3000 	str	r3, [sp]
     7cc:	e28d1010 	add	r1, sp, #16
     7d0:	e28d2014 	add	r2, sp, #20
     7d4:	e28d3018 	add	r3, sp, #24
     7d8:	eb0001c6 	bl	ef8 <neuron_initialise>
     7dc:	e3500000 	cmp	r0, #0
     7e0:	0a000043 	beq	8f4 <STACK_SIZE+0xf4>
     7e4:	e1a01004 	mov	r1, r4
     7e8:	e3a00004 	mov	r0, #4
     7ec:	eb0007a1 	bl	2678 <data_specification_get_region>
     7f0:	e1a01004 	mov	r1, r4
     7f4:	e1a06000 	mov	r6, r0
     7f8:	e3a00002 	mov	r0, #2
     7fc:	eb00079d 	bl	2678 <data_specification_get_region>
     800:	e1a01004 	mov	r1, r4
     804:	e1a07000 	mov	r7, r0
     808:	e3a0000a 	mov	r0, #10
     80c:	eb000799 	bl	2678 <data_specification_get_region>
     810:	e28d301c 	add	r3, sp, #28
     814:	e58d3000 	str	r3, [sp]
     818:	e28d3020 	add	r3, sp, #32
     81c:	e58d3004 	str	r3, [sp, #4]
     820:	e59d2010 	ldr	r2, [sp, #16]
     824:	e59d3014 	ldr	r3, [sp, #20]
     828:	e1a01000 	mov	r1, r0
     82c:	e1a00007 	mov	r0, r7
     830:	eb000043 	bl	944 <synapses_initialise>
     834:	e3500000 	cmp	r0, #0
     838:	0a00002d 	beq	8f4 <STACK_SIZE+0xf4>
     83c:	e1a01004 	mov	r1, r4
     840:	e3a00003 	mov	r0, #3
     844:	eb00078b 	bl	2678 <data_specification_get_region>
     848:	e1a01006 	mov	r1, r6
     84c:	e59d2020 	ldr	r2, [sp, #32]
     850:	e28d3024 	add	r3, sp, #36	; 0x24
     854:	eb0004b5 	bl	1b30 <population_table_initialise>
     858:	e3500000 	cmp	r0, #0
     85c:	0a000024 	beq	8f4 <STACK_SIZE+0xf4>
     860:	e1a01004 	mov	r1, r4
     864:	e3a00005 	mov	r0, #5
     868:	eb000782 	bl	2678 <data_specification_get_region>
     86c:	e59d2014 	ldr	r2, [sp, #20]
     870:	e59d301c 	ldr	r3, [sp, #28]
     874:	e59d1010 	ldr	r1, [sp, #16]
     878:	e1a06000 	mov	r6, r0
     87c:	eb0005ca 	bl	1fac <synapse_dynamics_initialise>
     880:	e2963000 	adds	r3, r6, #0
     884:	13a03001 	movne	r3, #1
     888:	e3500000 	cmp	r0, #0
     88c:	13a02000 	movne	r2, #0
     890:	02032001 	andeq	r2, r3, #1
     894:	e3520000 	cmp	r2, #0
     898:	1a000015 	bne	8f4 <STACK_SIZE+0xf4>
     89c:	e3530000 	cmp	r3, #0
     8a0:	1a000010 	bne	8e8 <STACK_SIZE+0xe8>
     8a4:	eb000747 	bl	25c8 <get_p_rew>
     8a8:	e3e01000 	mvn	r1, #0
     8ac:	e3a02000 	mov	r2, #0
     8b0:	e59d3018 	ldr	r3, [sp, #24]
     8b4:	e5850014 	str	r0, [r5, #20]
     8b8:	e2900001 	adds	r0, r0, #1
     8bc:	13a00001 	movne	r0, #1
     8c0:	e5c50010 	strb	r0, [r5, #16]
     8c4:	e59d0024 	ldr	r0, [sp, #36]	; 0x24
     8c8:	eb000432 	bl	1998 <spike_processing_initialise>
     8cc:	e3500000 	cmp	r0, #0
     8d0:	0a000007 	beq	8f4 <STACK_SIZE+0xf4>
     8d4:	e1a01004 	mov	r1, r4
     8d8:	e3a00008 	mov	r0, #8
     8dc:	eb000765 	bl	2678 <data_specification_get_region>
     8e0:	eb000b83 	bl	36f4 <profiler_init>
     8e4:	ea000004 	b	8fc <STACK_SIZE+0xfc>
     8e8:	eb000721 	bl	2574 <synaptogenesis_dynamics_initialise>
     8ec:	e3500000 	cmp	r0, #0
     8f0:	1affffeb 	bne	8a4 <STACK_SIZE+0xa4>
     8f4:	e3a00013 	mov	r0, #19
     8f8:	ebfffe0b 	bl	12c <rt_error>
     8fc:	e59f3038 	ldr	r3, [pc, #56]	; 93c <STACK_SIZE+0x13c>
     900:	e3e02000 	mvn	r2, #0
     904:	e595001c 	ldr	r0, [r5, #28]
     908:	e5951020 	ldr	r1, [r5, #32]
     90c:	e5832000 	str	r2, [r3]
     910:	fa001053 	blx	4a64 <spin1_set_timer_tick_and_phase>
     914:	e3a00002 	mov	r0, #2
     918:	e59f1020 	ldr	r1, [pc, #32]	; 940 <STACK_SIZE+0x140>
     91c:	e1a02000 	mov	r2, r0
     920:	fa001023 	blx	49b4 <spin1_callback_on>
     924:	eb00078b 	bl	2758 <simulation_run>
     928:	e28dd02c 	add	sp, sp, #44	; 0x2c
     92c:	e8bd80f0 	pop	{r4, r5, r6, r7, pc}
     930:	00400018 	.word	0x00400018
     934:	f89c4130 	.word	0xf89c4130
     938:	00000540 	.word	0x00000540
     93c:	00400680 	.word	0x00400680
     940:	0000057c 	.word	0x0000057c

00000944 <synapses_initialise>:
     944:	e92d43f8 	push	{r3, r4, r5, r6, r7, r8, r9, lr}
     948:	e59f515c 	ldr	r5, [pc, #348]	; aac <synapses_initialise+0x168>
     94c:	e1a04000 	mov	r4, r0
     950:	e1a00103 	lsl	r0, r3, #2
     954:	e885000c 	stm	r5, {r2, r3}
     958:	e1a07001 	mov	r7, r1
     95c:	fa001147 	blx	4e80 <spin1_malloc>
     960:	e5952004 	ldr	r2, [r5, #4]
     964:	e1a01004 	mov	r1, r4
     968:	e1a02102 	lsl	r2, r2, #2
     96c:	e5850008 	str	r0, [r5, #8]
     970:	fa0010f7 	blx	4d54 <spin1_memcpy>
     974:	e5976000 	ldr	r6, [r7]
     978:	e59d3020 	ldr	r3, [sp, #32]
     97c:	e5952008 	ldr	r2, [r5, #8]
     980:	e3560000 	cmp	r6, #0
     984:	e5832000 	str	r2, [r3]
     988:	0a00000f 	beq	9cc <synapses_initialise+0x88>
     98c:	e1a00006 	mov	r0, r6
     990:	fa00113a 	blx	4e80 <spin1_malloc>
     994:	e59d3024 	ldr	r3, [sp, #36]	; 0x24
     998:	e3500000 	cmp	r0, #0
     99c:	e1a04000 	mov	r4, r0
     9a0:	e5830000 	str	r0, [r3]
     9a4:	1a000005 	bne	9c0 <synapses_initialise+0x7c>
     9a8:	e3a00002 	mov	r0, #2
     9ac:	e59f10fc 	ldr	r1, [pc, #252]	; ab0 <synapses_initialise+0x16c>
     9b0:	e59f20fc 	ldr	r2, [pc, #252]	; ab4 <synapses_initialise+0x170>
     9b4:	fa000e6e 	blx	4374 <io_printf>
     9b8:	e1a00004 	mov	r0, r4
     9bc:	e8bd83f8 	pop	{r3, r4, r5, r6, r7, r8, r9, pc}
     9c0:	e2871004 	add	r1, r7, #4
     9c4:	e1a02006 	mov	r2, r6
     9c8:	fa0010e1 	blx	4d54 <spin1_memcpy>
     9cc:	e5953000 	ldr	r3, [r5]
     9d0:	e3530001 	cmp	r3, #1
     9d4:	01a04003 	moveq	r4, r3
     9d8:	0a000007 	beq	9fc <synapses_initialise+0xb8>
     9dc:	e2432001 	sub	r2, r3, #1
     9e0:	e1120003 	tst	r2, r3
     9e4:	116f3f13 	clzne	r3, r3
     9e8:	13a02001 	movne	r2, #1
     9ec:	12633020 	rsbne	r3, r3, #32
     9f0:	11a03312 	lslne	r3, r2, r3
     9f4:	e16f3f13 	clz	r3, r3
     9f8:	e263401f 	rsb	r4, r3, #31
     9fc:	e5953004 	ldr	r3, [r5, #4]
     a00:	e2432001 	sub	r2, r3, #1
     a04:	e1120003 	tst	r2, r3
     a08:	116f3f13 	clzne	r3, r3
     a0c:	13a02001 	movne	r2, #1
     a10:	12633020 	rsbne	r3, r3, #32
     a14:	11a03312 	lslne	r3, r2, r3
     a18:	e16f3f13 	clz	r3, r3
     a1c:	e263601f 	rsb	r6, r3, #31
     a20:	e0867004 	add	r7, r6, r4
     a24:	e3a03001 	mov	r3, #1
     a28:	e2879004 	add	r9, r7, #4
     a2c:	e1a09913 	lsl	r9, r3, r9
     a30:	e1a08319 	lsl	r8, r9, r3
     a34:	e1a00008 	mov	r0, r8
     a38:	fa001110 	blx	4e80 <spin1_malloc>
     a3c:	e3500000 	cmp	r0, #0
     a40:	e585000c 	str	r0, [r5, #12]
     a44:	1a000004 	bne	a5c <synapses_initialise+0x118>
     a48:	e3a00002 	mov	r0, #2
     a4c:	e59f1064 	ldr	r1, [pc, #100]	; ab8 <synapses_initialise+0x174>
     a50:	e59f2064 	ldr	r2, [pc, #100]	; abc <synapses_initialise+0x178>
     a54:	e1a03009 	mov	r3, r9
     a58:	fa000e45 	blx	4374 <io_printf>
     a5c:	e595300c 	ldr	r3, [r5, #12]
     a60:	e0838008 	add	r8, r3, r8
     a64:	e1530008 	cmp	r3, r8
     a68:	13a02000 	movne	r2, #0
     a6c:	10c320b2 	strhne	r2, [r3], #2
     a70:	1afffffb 	bne	a64 <synapses_initialise+0x120>
     a74:	e3a00001 	mov	r0, #1
     a78:	e5857010 	str	r7, [r5, #16]
     a7c:	e5854018 	str	r4, [r5, #24]
     a80:	e1a07710 	lsl	r7, r0, r7
     a84:	e1a04410 	lsl	r4, r0, r4
     a88:	e5856020 	str	r6, [r5, #32]
     a8c:	e1a06610 	lsl	r6, r0, r6
     a90:	e2477001 	sub	r7, r7, #1
     a94:	e2444001 	sub	r4, r4, #1
     a98:	e2466001 	sub	r6, r6, #1
     a9c:	e5857014 	str	r7, [r5, #20]
     aa0:	e585401c 	str	r4, [r5, #28]
     aa4:	e5856024 	str	r6, [r5, #36]	; 0x24
     aa8:	e8bd83f8 	pop	{r3, r4, r5, r6, r7, r8, r9, pc}
     aac:	0040003c 	.word	0x0040003c
     ab0:	0000551f 	.word	0x0000551f
     ab4:	00001bd8 	.word	0x00001bd8
     ab8:	0000551c 	.word	0x0000551c
     abc:	00001bdb 	.word	0x00001bdb

00000ac0 <synapses_do_timestep_update>:
     ac0:	e92d47f0 	push	{r4, r5, r6, r7, r8, r9, sl, lr}
     ac4:	e1a08000 	mov	r8, r0
     ac8:	ebfffdb6 	bl	1a8 <cpu_irq_disable>
     acc:	e3a06000 	mov	r6, #0
     ad0:	e1a0a000 	mov	sl, r0
     ad4:	e59f907c 	ldr	r9, [pc, #124]	; b58 <synapses_do_timestep_update+0x98>
     ad8:	e5993000 	ldr	r3, [r9]
     adc:	e1560003 	cmp	r6, r3
     ae0:	2a000019 	bcs	b4c <synapses_do_timestep_update+0x8c>
     ae4:	e3a05000 	mov	r5, #0
     ae8:	e5993004 	ldr	r3, [r9, #4]
     aec:	e59f7064 	ldr	r7, [pc, #100]	; b58 <synapses_do_timestep_update+0x98>
     af0:	e1550003 	cmp	r5, r3
     af4:	2a000012 	bcs	b44 <synapses_do_timestep_update+0x84>
     af8:	e5973010 	ldr	r3, [r7, #16]
     afc:	e208400f 	and	r4, r8, #15
     b00:	e1864314 	orr	r4, r6, r4, lsl r3
     b04:	e5973018 	ldr	r3, [r7, #24]
     b08:	e1a00005 	mov	r0, r5
     b0c:	e1844315 	orr	r4, r4, r5, lsl r3
     b10:	e597300c 	ldr	r3, [r7, #12]
     b14:	e1a04084 	lsl	r4, r4, #1
     b18:	e19320b4 	ldrh	r2, [r3, r4]
     b1c:	e5973008 	ldr	r3, [r7, #8]
     b20:	e1a01006 	mov	r1, r6
     b24:	e7933105 	ldr	r3, [r3, r5, lsl #2]
     b28:	e2855001 	add	r5, r5, #1
     b2c:	e1a02312 	lsl	r2, r2, r3
     b30:	eb0002bc 	bl	1628 <neuron_add_inputs>
     b34:	e597300c 	ldr	r3, [r7, #12]
     b38:	e3a02000 	mov	r2, #0
     b3c:	e18320b4 	strh	r2, [r3, r4]
     b40:	eaffffe8 	b	ae8 <synapses_do_timestep_update+0x28>
     b44:	e2866001 	add	r6, r6, #1
     b48:	eaffffe1 	b	ad4 <synapses_do_timestep_update+0x14>
     b4c:	e1a0000a 	mov	r0, sl
     b50:	e8bd47f0 	pop	{r4, r5, r6, r7, r8, r9, sl, lr}
     b54:	eafffd9f 	b	1d8 <cpu_int_restore>
     b58:	0040003c 	.word	0x0040003c

00000b5c <synapses_process_synaptic_row>:
     b5c:	e92d47f0 	push	{r4, r5, r6, r7, r8, r9, sl, lr}
     b60:	e1a09003 	mov	r9, r3
     b64:	e5913000 	ldr	r3, [r1]
     b68:	e1a05000 	mov	r5, r0
     b6c:	e2837001 	add	r7, r3, #1
     b70:	e3530000 	cmp	r3, #0
     b74:	e1a06001 	mov	r6, r1
     b78:	e0818107 	add	r8, r1, r7, lsl #2
     b7c:	e59f40a0 	ldr	r4, [pc, #160]	; c24 <ETH_RX_SIZE+0x24>
     b80:	0a00000b 	beq	bb4 <synapses_process_synaptic_row+0x58>
     b84:	e2810004 	add	r0, r1, #4
     b88:	e1a0a002 	mov	sl, r2
     b8c:	e1a01008 	mov	r1, r8
     b90:	e594200c 	ldr	r2, [r4, #12]
     b94:	e1a03005 	mov	r3, r5
     b98:	eb000550 	bl	20e0 <synapse_dynamics_process_plastic_synapses>
     b9c:	e3500000 	cmp	r0, #0
     ba0:	08bd87f0 	popeq	{r4, r5, r6, r7, r8, r9, sl, pc}
     ba4:	e35a0000 	cmp	sl, #0
     ba8:	0a000001 	beq	bb4 <synapses_process_synaptic_row+0x58>
     bac:	e1a00009 	mov	r0, r9
     bb0:	eb0003b2 	bl	1a80 <spike_processing_finish_write>
     bb4:	e7960107 	ldr	r0, [r6, r7, lsl #2]
     bb8:	e5943028 	ldr	r3, [r4, #40]	; 0x28
     bbc:	e2881008 	add	r1, r8, #8
     bc0:	e5946010 	ldr	r6, [r4, #16]
     bc4:	e5948014 	ldr	r8, [r4, #20]
     bc8:	e594700c 	ldr	r7, [r4, #12]
     bcc:	e594c02c 	ldr	ip, [r4, #44]	; 0x2c
     bd0:	e0803003 	add	r3, r0, r3
     bd4:	e5843028 	str	r3, [r4, #40]	; 0x28
     bd8:	e3500000 	cmp	r0, #0
     bdc:	0a00000d 	beq	c18 <ETH_RX_SIZE+0x18>
     be0:	e491e004 	ldr	lr, [r1], #4
     be4:	e2400001 	sub	r0, r0, #1
     be8:	e085363e 	add	r3, r5, lr, lsr r6
     bec:	e00e2008 	and	r2, lr, r8
     bf0:	e203300f 	and	r3, r3, #15
     bf4:	e1823613 	orr	r3, r2, r3, lsl r6
     bf8:	e1a03083 	lsl	r3, r3, #1
     bfc:	e19720b3 	ldrh	r2, [r7, r3]
     c00:	e082282e 	add	r2, r2, lr, lsr #16
     c04:	e3120801 	tst	r2, #65536	; 0x10000
     c08:	159f2018 	ldrne	r2, [pc, #24]	; c28 <ETH_RX_SIZE+0x28>
     c0c:	128cc001 	addne	ip, ip, #1
     c10:	e18720b3 	strh	r2, [r7, r3]
     c14:	eaffffef 	b	bd8 <synapses_process_synaptic_row+0x7c>
     c18:	e584c02c 	str	ip, [r4, #44]	; 0x2c
     c1c:	e3a00001 	mov	r0, #1
     c20:	e8bd87f0 	pop	{r4, r5, r6, r7, r8, r9, sl, pc}
     c24:	0040003c 	.word	0x0040003c
     c28:	0000ffff 	.word	0x0000ffff

00000c2c <synapses_get_saturation_count>:
     c2c:	e59f3004 	ldr	r3, [pc, #4]	; c38 <ZI_LENGTH+0xc>
     c30:	e593002c 	ldr	r0, [r3, #44]	; 0x2c
     c34:	e12fff1e 	bx	lr
     c38:	0040003c 	.word	0x0040003c

00000c3c <synapses_get_pre_synaptic_events>:
     c3c:	e59f3010 	ldr	r3, [pc, #16]	; c54 <synapses_get_pre_synaptic_events+0x18>
     c40:	e92d4010 	push	{r4, lr}
     c44:	e5934028 	ldr	r4, [r3, #40]	; 0x28
     c48:	eb0005fd 	bl	2444 <synapse_dynamics_get_plastic_pre_synaptic_events>
     c4c:	e0800004 	add	r0, r0, r4
     c50:	e8bd8010 	pop	{r4, pc}
     c54:	0040003c 	.word	0x0040003c

00000c58 <find_static_neuron_with_id>:
     c58:	e591c000 	ldr	ip, [r1]
     c5c:	e92d40f0 	push	{r4, r5, r6, r7, lr}
     c60:	e59f5070 	ldr	r5, [pc, #112]	; cd8 <find_static_neuron_with_id+0x80>
     c64:	e28cc001 	add	ip, ip, #1
     c68:	e081410c 	add	r4, r1, ip, lsl #2
     c6c:	e5956010 	ldr	r6, [r5, #16]
     c70:	e791e10c 	ldr	lr, [r1, ip, lsl #2]
     c74:	e595501c 	ldr	r5, [r5, #28]
     c78:	e2844008 	add	r4, r4, #8
     c7c:	e35e0000 	cmp	lr, #0
     c80:	da00000e 	ble	cc0 <find_static_neuron_with_id+0x68>
     c84:	e4943004 	ldr	r3, [r4], #4
     c88:	e0037005 	and	r7, r3, r5
     c8c:	e1570000 	cmp	r7, r0
     c90:	124ee001 	subne	lr, lr, #1
     c94:	1afffff8 	bne	c7c <find_static_neuron_with_id+0x24>
     c98:	e1a00823 	lsr	r0, r3, #16
     c9c:	e5820000 	str	r0, [r2]
     ca0:	e1a03633 	lsr	r3, r3, r6
     ca4:	e791110c 	ldr	r1, [r1, ip, lsl #2]
     ca8:	e203300f 	and	r3, r3, #15
     cac:	e06ee001 	rsb	lr, lr, r1
     cb0:	e582e008 	str	lr, [r2, #8]
     cb4:	e5823004 	str	r3, [r2, #4]
     cb8:	e3a00001 	mov	r0, #1
     cbc:	e8bd80f0 	pop	{r4, r5, r6, r7, pc}
     cc0:	e3e03000 	mvn	r3, #0
     cc4:	e5823000 	str	r3, [r2]
     cc8:	e5823008 	str	r3, [r2, #8]
     ccc:	e5823004 	str	r3, [r2, #4]
     cd0:	e3a00000 	mov	r0, #0
     cd4:	e8bd80f0 	pop	{r4, r5, r6, r7, pc}
     cd8:	0040003c 	.word	0x0040003c

00000cdc <remove_static_neuron_at_offset>:
     cdc:	e5913000 	ldr	r3, [r1]
     ce0:	e2833001 	add	r3, r3, #1
     ce4:	e791c103 	ldr	ip, [r1, r3, lsl #2]
     ce8:	e0812103 	add	r2, r1, r3, lsl #2
     cec:	e2822008 	add	r2, r2, #8
     cf0:	e24cc107 	sub	ip, ip, #-1073741823	; 0xc0000001
     cf4:	e792c10c 	ldr	ip, [r2, ip, lsl #2]
     cf8:	e782c100 	str	ip, [r2, r0, lsl #2]
     cfc:	e7912103 	ldr	r2, [r1, r3, lsl #2]
     d00:	e3a00001 	mov	r0, #1
     d04:	e2422001 	sub	r2, r2, #1
     d08:	e7812103 	str	r2, [r1, r3, lsl #2]
     d0c:	e12fff1e 	bx	lr

00000d10 <add_static_neuron_with_id>:
     d10:	e92d41f0 	push	{r4, r5, r6, r7, r8, lr}
     d14:	e591e000 	ldr	lr, [r1]
     d18:	e59f8064 	ldr	r8, [pc, #100]	; d84 <add_static_neuron_with_id+0x74>
     d1c:	e28ee001 	add	lr, lr, #1
     d20:	e791610e 	ldr	r6, [r1, lr, lsl #2]
     d24:	e081410e 	add	r4, r1, lr, lsl #2
     d28:	e598c010 	ldr	ip, [r8, #16]
     d2c:	e0846106 	add	r6, r4, r6, lsl #2
     d30:	e5984020 	ldr	r4, [r8, #32]
     d34:	e3a05001 	mov	r5, #1
     d38:	e203300f 	and	r3, r3, #15
     d3c:	e1a03c13 	lsl	r3, r3, ip
     d40:	e1a04415 	lsl	r4, r5, r4
     d44:	e59d7018 	ldr	r7, [sp, #24]
     d48:	e1832802 	orr	r2, r3, r2, lsl #16
     d4c:	e1a0cc15 	lsl	ip, r5, ip
     d50:	e5983018 	ldr	r3, [r8, #24]
     d54:	e2444001 	sub	r4, r4, #1
     d58:	e0044007 	and	r4, r4, r7
     d5c:	e1822314 	orr	r2, r2, r4, lsl r3
     d60:	e24cc001 	sub	ip, ip, #1
     d64:	e000000c 	and	r0, r0, ip
     d68:	e182c000 	orr	ip, r2, r0
     d6c:	e586c008 	str	ip, [r6, #8]
     d70:	e791310e 	ldr	r3, [r1, lr, lsl #2]
     d74:	e1a00005 	mov	r0, r5
     d78:	e0833005 	add	r3, r3, r5
     d7c:	e781310e 	str	r3, [r1, lr, lsl #2]
     d80:	e8bd81f0 	pop	{r4, r5, r6, r7, r8, pc}
     d84:	0040003c 	.word	0x0040003c

00000d88 <recording_done_callback>:
     d88:	e59f200c 	ldr	r2, [pc, #12]	; d9c <recording_done_callback+0x14>
     d8c:	e5923000 	ldr	r3, [r2]
     d90:	e2433001 	sub	r3, r3, #1
     d94:	e5823000 	str	r3, [r2]
     d98:	e12fff1e 	bx	lr
     d9c:	0040006c 	.word	0x0040006c

00000da0 <_neuron_load_neuron_parameters>:
     da0:	e92d4ff7 	push	{r0, r1, r2, r4, r5, r6, r7, r8, r9, sl, fp, lr}
     da4:	e5901024 	ldr	r1, [r0, #36]	; 0x24
     da8:	e59f7140 	ldr	r7, [pc, #320]	; ef0 <_neuron_load_neuron_parameters+0x150>
     dac:	e5903020 	ldr	r3, [r0, #32]
     db0:	e1a06000 	mov	r6, r0
     db4:	e311001f 	tst	r1, #31
     db8:	e5972004 	ldr	r2, [r7, #4]
     dbc:	e5873008 	str	r3, [r7, #8]
     dc0:	e1a032a1 	lsr	r3, r1, #5
     dc4:	12833001 	addne	r3, r3, #1
     dc8:	e5970010 	ldr	r0, [r7, #16]
     dcc:	e2861028 	add	r1, r6, #40	; 0x28
     dd0:	e2829003 	add	r9, r2, #3
     dd4:	e587300c 	str	r3, [r7, #12]
     dd8:	fa000fdd 	blx	4d54 <spin1_memcpy>
     ddc:	e1a09129 	lsr	r9, r9, #2
     de0:	e289400a 	add	r4, r9, #10
     de4:	e2899002 	add	r9, r9, #2
     de8:	e1a0b109 	lsl	fp, r9, #2
     dec:	e28b8028 	add	r8, fp, #40	; 0x28
     df0:	e0868008 	add	r8, r6, r8
     df4:	e3a0a000 	mov	sl, #0
     df8:	e5973020 	ldr	r3, [r7, #32]
     dfc:	e59f50ec 	ldr	r5, [pc, #236]	; ef0 <_neuron_load_neuron_parameters+0x150>
     e00:	e15a0003 	cmp	sl, r3
     e04:	2a000010 	bcs	e4c <_neuron_load_neuron_parameters+0xac>
     e08:	e5953014 	ldr	r3, [r5, #20]
     e0c:	e5182008 	ldr	r2, [r8, #-8]
     e10:	e783210a 	str	r2, [r3, sl, lsl #2]
     e14:	e5183004 	ldr	r3, [r8, #-4]
     e18:	e5952018 	ldr	r2, [r5, #24]
     e1c:	e2833001 	add	r3, r3, #1
     e20:	e1a03103 	lsl	r3, r3, #2
     e24:	e782310a 	str	r3, [r2, sl, lsl #2]
     e28:	e595301c 	ldr	r3, [r5, #28]
     e2c:	e1a01008 	mov	r1, r8
     e30:	e793010a 	ldr	r0, [r3, sl, lsl #2]
     e34:	e5952004 	ldr	r2, [r5, #4]
     e38:	fa000fc5 	blx	4d54 <spin1_memcpy>
     e3c:	e0844009 	add	r4, r4, r9
     e40:	e28aa001 	add	sl, sl, #1
     e44:	e088800b 	add	r8, r8, fp
     e48:	eaffffea 	b	df8 <_neuron_load_neuron_parameters+0x58>
     e4c:	e5957004 	ldr	r7, [r5, #4]
     e50:	e5953024 	ldr	r3, [r5, #36]	; 0x24
     e54:	e0869104 	add	r9, r6, r4, lsl #2
     e58:	e1a08287 	lsl	r8, r7, #5
     e5c:	e1a00003 	mov	r0, r3
     e60:	e1a01009 	mov	r1, r9
     e64:	e0844128 	add	r4, r4, r8, lsr #2
     e68:	e3a02000 	mov	r2, #0
     e6c:	e58d3004 	str	r3, [sp, #4]
     e70:	fa000fb7 	blx	4d54 <spin1_memcpy>
     e74:	e5950028 	ldr	r0, [r5, #40]	; 0x28
     e78:	e1a01009 	mov	r1, r9
     e7c:	e1a02008 	mov	r2, r8
     e80:	e0869104 	add	r9, r6, r4, lsl #2
     e84:	fa000fb2 	blx	4d54 <spin1_memcpy>
     e88:	e1a08107 	lsl	r8, r7, #2
     e8c:	e595002c 	ldr	r0, [r5, #44]	; 0x2c
     e90:	e1a01009 	mov	r1, r9
     e94:	e3a02000 	mov	r2, #0
     e98:	fa000fad 	blx	4d54 <spin1_memcpy>
     e9c:	e5950030 	ldr	r0, [r5, #48]	; 0x30
     ea0:	e1a01009 	mov	r1, r9
     ea4:	e1a02008 	mov	r2, r8
     ea8:	fa000fa9 	blx	4d54 <spin1_memcpy>
     eac:	e3a01018 	mov	r1, #24
     eb0:	e0070791 	mul	r7, r1, r7
     eb4:	e0844128 	add	r4, r4, r8, lsr #2
     eb8:	e5950034 	ldr	r0, [r5, #52]	; 0x34
     ebc:	e0861104 	add	r1, r6, r4, lsl #2
     ec0:	e1a02007 	mov	r2, r7
     ec4:	fa000fa2 	blx	4d54 <spin1_memcpy>
     ec8:	e0841127 	add	r1, r4, r7, lsr #2
     ecc:	e5950038 	ldr	r0, [r5, #56]	; 0x38
     ed0:	e0861101 	add	r1, r6, r1, lsl #2
     ed4:	e3a02000 	mov	r2, #0
     ed8:	fa000f9d 	blx	4d54 <spin1_memcpy>
     edc:	e59d0004 	ldr	r0, [sp, #4]
     ee0:	eb0003fb 	bl	1ed4 <neuron_model_set_global_neuron_params>
     ee4:	e3a00001 	mov	r0, #1
     ee8:	e28dd00c 	add	sp, sp, #12
     eec:	e8bd8ff0 	pop	{r4, r5, r6, r7, r8, r9, sl, fp, pc}
     ef0:	0040006c 	.word	0x0040006c

00000ef4 <neuron_reload_neuron_parameters>:
     ef4:	eaffffa9 	b	da0 <_neuron_load_neuron_parameters>

00000ef8 <neuron_initialise>:
     ef8:	e92d41f0 	push	{r4, r5, r6, r7, r8, lr}
     efc:	e590c000 	ldr	ip, [r0]
     f00:	e1a08000 	mov	r8, r0
     f04:	e59d0018 	ldr	r0, [sp, #24]
     f08:	e59f52e4 	ldr	r5, [pc, #740]	; 11f4 <SV_SIZE+0x1f4>
     f0c:	e580c000 	str	ip, [r0]
     f10:	e59f02e0 	ldr	r0, [pc, #736]	; 11f8 <SV_SIZE+0x1f8>
     f14:	e598c004 	ldr	ip, [r8, #4]
     f18:	e1d002b4 	ldrh	r0, [r0, #36]	; 0x24
     f1c:	e5984010 	ldr	r4, [r8, #16]
     f20:	e000009c 	mul	r0, ip, r0
     f24:	e5854004 	str	r4, [r5, #4]
     f28:	e585003c 	str	r0, [r5, #60]	; 0x3c
     f2c:	e5980008 	ldr	r0, [r8, #8]
     f30:	e2900000 	adds	r0, r0, #0
     f34:	13a00001 	movne	r0, #1
     f38:	e5c50040 	strb	r0, [r5, #64]	; 0x40
     f3c:	e598000c 	ldr	r0, [r8, #12]
     f40:	e5814000 	str	r4, [r1]
     f44:	e5981014 	ldr	r1, [r8, #20]
     f48:	e5821000 	str	r1, [r2]
     f4c:	e5982018 	ldr	r2, [r8, #24]
     f50:	e5850044 	str	r0, [r5, #68]	; 0x44
     f54:	e5832000 	str	r2, [r3]
     f58:	e1a00284 	lsl	r0, r4, #5
     f5c:	e598301c 	ldr	r3, [r8, #28]
     f60:	e5853020 	str	r3, [r5, #32]
     f64:	fa000fc5 	blx	4e80 <spin1_malloc>
     f68:	e3500000 	cmp	r0, #0
     f6c:	e5850028 	str	r0, [r5, #40]	; 0x28
     f70:	03a00002 	moveq	r0, #2
     f74:	059f1280 	ldreq	r1, [pc, #640]	; 11fc <SV_SIZE+0x1fc>
     f78:	059f2280 	ldreq	r2, [pc, #640]	; 1200 <SV_SIZE+0x200>
     f7c:	0a000010 	beq	fc4 <RTR_TST2+0xc0>
     f80:	e1a00104 	lsl	r0, r4, #2
     f84:	fa000fbd 	blx	4e80 <spin1_malloc>
     f88:	e3500000 	cmp	r0, #0
     f8c:	e5850030 	str	r0, [r5, #48]	; 0x30
     f90:	03a00002 	moveq	r0, #2
     f94:	059f1260 	ldreq	r1, [pc, #608]	; 11fc <SV_SIZE+0x1fc>
     f98:	059f2264 	ldreq	r2, [pc, #612]	; 1204 <SV_SIZE+0x204>
     f9c:	0a000008 	beq	fc4 <RTR_TST2+0xc0>
     fa0:	e3a00018 	mov	r0, #24
     fa4:	e0000094 	mul	r0, r4, r0
     fa8:	fa000fb4 	blx	4e80 <spin1_malloc>
     fac:	e3500000 	cmp	r0, #0
     fb0:	e5850034 	str	r0, [r5, #52]	; 0x34
     fb4:	1a000004 	bne	fcc <RTR_TST2+0xc8>
     fb8:	e59f123c 	ldr	r1, [pc, #572]	; 11fc <SV_SIZE+0x1fc>
     fbc:	e59f2244 	ldr	r2, [pc, #580]	; 1208 <SV_SIZE+0x208>
     fc0:	e3a00002 	mov	r0, #2
     fc4:	fa000cea 	blx	4374 <io_printf>
     fc8:	ea000086 	b	11e8 <SV_SIZE+0x1e8>
     fcc:	e5950004 	ldr	r0, [r5, #4]
     fd0:	ebfffd09 	bl	3fc <out_spikes_initialize>
     fd4:	e3500000 	cmp	r0, #0
     fd8:	0a000082 	beq	11e8 <SV_SIZE+0x1e8>
     fdc:	e5950004 	ldr	r0, [r5, #4]
     fe0:	fa000fa6 	blx	4e80 <spin1_malloc>
     fe4:	e3500000 	cmp	r0, #0
     fe8:	e1a04000 	mov	r4, r0
     fec:	e5850010 	str	r0, [r5, #16]
     ff0:	03a00002 	moveq	r0, #2
     ff4:	059f1200 	ldreq	r1, [pc, #512]	; 11fc <SV_SIZE+0x1fc>
     ff8:	059f220c 	ldreq	r2, [pc, #524]	; 120c <SV_SIZE+0x20c>
     ffc:	0a000009 	beq	1028 <SV_SIZE+0x28>
    1000:	e5950020 	ldr	r0, [r5, #32]
    1004:	e1a00100 	lsl	r0, r0, #2
    1008:	fa000f9c 	blx	4e80 <spin1_malloc>
    100c:	e3500000 	cmp	r0, #0
    1010:	e1a04000 	mov	r4, r0
    1014:	e5850014 	str	r0, [r5, #20]
    1018:	1a000004 	bne	1030 <SV_SIZE+0x30>
    101c:	e59f11d8 	ldr	r1, [pc, #472]	; 11fc <SV_SIZE+0x1fc>
    1020:	e59f21e8 	ldr	r2, [pc, #488]	; 1210 <SV_SIZE+0x210>
    1024:	e3a00002 	mov	r0, #2
    1028:	fa000cd1 	blx	4374 <io_printf>
    102c:	ea00006e 	b	11ec <SV_SIZE+0x1ec>
    1030:	e5950020 	ldr	r0, [r5, #32]
    1034:	e1a00100 	lsl	r0, r0, #2
    1038:	fa000f90 	blx	4e80 <spin1_malloc>
    103c:	e3500000 	cmp	r0, #0
    1040:	e1a04000 	mov	r4, r0
    1044:	e5850048 	str	r0, [r5, #72]	; 0x48
    1048:	03a00002 	moveq	r0, #2
    104c:	059f11a8 	ldreq	r1, [pc, #424]	; 11fc <SV_SIZE+0x1fc>
    1050:	059f21bc 	ldreq	r2, [pc, #444]	; 1214 <SV_SIZE+0x214>
    1054:	0afffff3 	beq	1028 <SV_SIZE+0x28>
    1058:	e5950020 	ldr	r0, [r5, #32]
    105c:	e1a00100 	lsl	r0, r0, #2
    1060:	fa000f86 	blx	4e80 <spin1_malloc>
    1064:	e3500000 	cmp	r0, #0
    1068:	e1a04000 	mov	r4, r0
    106c:	e585004c 	str	r0, [r5, #76]	; 0x4c
    1070:	03a00002 	moveq	r0, #2
    1074:	059f1180 	ldreq	r1, [pc, #384]	; 11fc <SV_SIZE+0x1fc>
    1078:	059f2198 	ldreq	r2, [pc, #408]	; 1218 <SV_SIZE+0x218>
    107c:	0affffe9 	beq	1028 <SV_SIZE+0x28>
    1080:	e5950020 	ldr	r0, [r5, #32]
    1084:	e1a00100 	lsl	r0, r0, #2
    1088:	fa000f7c 	blx	4e80 <spin1_malloc>
    108c:	e3500000 	cmp	r0, #0
    1090:	e1a04000 	mov	r4, r0
    1094:	e585001c 	str	r0, [r5, #28]
    1098:	03a00002 	moveq	r0, #2
    109c:	059f1158 	ldreq	r1, [pc, #344]	; 11fc <SV_SIZE+0x1fc>
    10a0:	059f2174 	ldreq	r2, [pc, #372]	; 121c <SV_SIZE+0x21c>
    10a4:	0affffdf 	beq	1028 <SV_SIZE+0x28>
    10a8:	e5950020 	ldr	r0, [r5, #32]
    10ac:	e1a06005 	mov	r6, r5
    10b0:	e1a00100 	lsl	r0, r0, #2
    10b4:	fa000f71 	blx	4e80 <spin1_malloc>
    10b8:	e3500000 	cmp	r0, #0
    10bc:	e5850018 	str	r0, [r5, #24]
    10c0:	03a00002 	moveq	r0, #2
    10c4:	059f1130 	ldreq	r1, [pc, #304]	; 11fc <SV_SIZE+0x1fc>
    10c8:	059f2150 	ldreq	r2, [pc, #336]	; 1220 <SV_SIZE+0x220>
    10cc:	0affffbc 	beq	fc4 <RTR_TST2+0xc0>
    10d0:	e5950020 	ldr	r0, [r5, #32]
    10d4:	e1a00100 	lsl	r0, r0, #2
    10d8:	fa000f68 	blx	4e80 <spin1_malloc>
    10dc:	e3500000 	cmp	r0, #0
    10e0:	e1a04000 	mov	r4, r0
    10e4:	e5860050 	str	r0, [r6, #80]	; 0x50
    10e8:	13a07000 	movne	r7, #0
    10ec:	1a000004 	bne	1104 <SV_SIZE+0x104>
    10f0:	e3a00002 	mov	r0, #2
    10f4:	e59f1100 	ldr	r1, [pc, #256]	; 11fc <SV_SIZE+0x1fc>
    10f8:	e59f2124 	ldr	r2, [pc, #292]	; 1224 <SV_SIZE+0x224>
    10fc:	eaffffc9 	b	1028 <SV_SIZE+0x28>
    1100:	e2877001 	add	r7, r7, #1
    1104:	e5963020 	ldr	r3, [r6, #32]
    1108:	e59f50e4 	ldr	r5, [pc, #228]	; 11f4 <SV_SIZE+0x1f4>
    110c:	e1570003 	cmp	r7, r3
    1110:	2a000013 	bcs	1164 <SV_SIZE+0x164>
    1114:	e5950004 	ldr	r0, [r5, #4]
    1118:	e595401c 	ldr	r4, [r5, #28]
    111c:	fa000f57 	blx	4e80 <spin1_malloc>
    1120:	e7840107 	str	r0, [r4, r7, lsl #2]
    1124:	e5950004 	ldr	r0, [r5, #4]
    1128:	e5954050 	ldr	r4, [r5, #80]	; 0x50
    112c:	e2800001 	add	r0, r0, #1
    1130:	e1a00100 	lsl	r0, r0, #2
    1134:	fa000f51 	blx	4e80 <spin1_malloc>
    1138:	e5953050 	ldr	r3, [r5, #80]	; 0x50
    113c:	e7840107 	str	r0, [r4, r7, lsl #2]
    1140:	e7934107 	ldr	r4, [r3, r7, lsl #2]
    1144:	e3540000 	cmp	r4, #0
    1148:	1affffec 	bne	1100 <SV_SIZE+0x100>
    114c:	e3a00002 	mov	r0, #2
    1150:	e59f10d0 	ldr	r1, [pc, #208]	; 1228 <SV_SIZE+0x228>
    1154:	e59f20d0 	ldr	r2, [pc, #208]	; 122c <SV_SIZE+0x22c>
    1158:	e1a03007 	mov	r3, r7
    115c:	fa000c84 	blx	4374 <io_printf>
    1160:	ea000021 	b	11ec <SV_SIZE+0x1ec>
    1164:	e1a00008 	mov	r0, r8
    1168:	ebffff0c 	bl	da0 <_neuron_load_neuron_parameters>
    116c:	e2504000 	subs	r4, r0, #0
    1170:	0a00001c 	beq	11e8 <SV_SIZE+0x1e8>
    1174:	e5953008 	ldr	r3, [r5, #8]
    1178:	e3530000 	cmp	r3, #0
    117c:	1a000009 	bne	11a8 <SV_SIZE+0x1a8>
    1180:	e5853054 	str	r3, [r5, #84]	; 0x54
    1184:	e3a03002 	mov	r3, #2
    1188:	e5853058 	str	r3, [r5, #88]	; 0x58
    118c:	e5962014 	ldr	r2, [r6, #20]
    1190:	e5965020 	ldr	r5, [r6, #32]
    1194:	e596104c 	ldr	r1, [r6, #76]	; 0x4c
    1198:	e5960048 	ldr	r0, [r6, #72]	; 0x48
    119c:	e2422004 	sub	r2, r2, #4
    11a0:	e3a03000 	mov	r3, #0
    11a4:	ea000004 	b	11bc <SV_SIZE+0x1bc>
    11a8:	e3a02001 	mov	r2, #1
    11ac:	e5852054 	str	r2, [r5, #84]	; 0x54
    11b0:	e5853058 	str	r3, [r5, #88]	; 0x58
    11b4:	ebfffc84 	bl	3cc <out_spikes_reset>
    11b8:	eafffff3 	b	118c <SV_SIZE+0x18c>
    11bc:	e1530005 	cmp	r3, r5
    11c0:	0a000009 	beq	11ec <SV_SIZE+0x1ec>
    11c4:	e5b2e004 	ldr	lr, [r2, #4]!
    11c8:	e3a0c001 	mov	ip, #1
    11cc:	e35e0000 	cmp	lr, #0
    11d0:	1781c103 	strne	ip, [r1, r3, lsl #2]
    11d4:	1592c000 	ldrne	ip, [r2]
    11d8:	0781e103 	streq	lr, [r1, r3, lsl #2]
    11dc:	e780c103 	str	ip, [r0, r3, lsl #2]
    11e0:	e2833001 	add	r3, r3, #1
    11e4:	eafffff4 	b	11bc <SV_SIZE+0x1bc>
    11e8:	e3a04000 	mov	r4, #0
    11ec:	e1a00004 	mov	r0, r4
    11f0:	e8bd81f0 	pop	{r4, r5, r6, r7, r8, pc}
    11f4:	0040006c 	.word	0x0040006c
    11f8:	e5007f00 	.word	0xe5007f00
    11fc:	0000551f 	.word	0x0000551f
    1200:	00001c60 	.word	0x00001c60
    1204:	00001c63 	.word	0x00001c63
    1208:	00001c64 	.word	0x00001c64
    120c:	00001bac 	.word	0x00001bac
    1210:	00001bad 	.word	0x00001bad
    1214:	00001bae 	.word	0x00001bae
    1218:	00001baf 	.word	0x00001baf
    121c:	00001bb0 	.word	0x00001bb0
    1220:	00001bb1 	.word	0x00001bb1
    1224:	00001bb2 	.word	0x00001bb2
    1228:	00005438 	.word	0x00005438
    122c:	00001bb3 	.word	0x00001bb3

00001230 <neuron_store_neuron_parameters>:
    1230:	e92d43f8 	push	{r3, r4, r5, r6, r7, r8, r9, lr}
    1234:	e59f80a8 	ldr	r8, [pc, #168]	; 12e4 <neuron_store_neuron_parameters+0xb4>
    1238:	e1a06000 	mov	r6, r0
    123c:	e5987004 	ldr	r7, [r8, #4]
    1240:	e5983020 	ldr	r3, [r8, #32]
    1244:	e2875003 	add	r5, r7, #3
    1248:	e1a05125 	lsr	r5, r5, #2
    124c:	e2833001 	add	r3, r3, #1
    1250:	e2855002 	add	r5, r5, #2
    1254:	e0050593 	mul	r5, r3, r5
    1258:	e1a04287 	lsl	r4, r7, #5
    125c:	e2855008 	add	r5, r5, #8
    1260:	e0809105 	add	r9, r0, r5, lsl #2
    1264:	e1a00009 	mov	r0, r9
    1268:	e0855124 	add	r5, r5, r4, lsr #2
    126c:	e5981024 	ldr	r1, [r8, #36]	; 0x24
    1270:	e3a02000 	mov	r2, #0
    1274:	fa000eb6 	blx	4d54 <spin1_memcpy>
    1278:	e1a00009 	mov	r0, r9
    127c:	e5981028 	ldr	r1, [r8, #40]	; 0x28
    1280:	e1a02004 	mov	r2, r4
    1284:	e0869105 	add	r9, r6, r5, lsl #2
    1288:	fa000eb1 	blx	4d54 <spin1_memcpy>
    128c:	e1a04107 	lsl	r4, r7, #2
    1290:	e1a00009 	mov	r0, r9
    1294:	e598102c 	ldr	r1, [r8, #44]	; 0x2c
    1298:	e3a02000 	mov	r2, #0
    129c:	fa000eac 	blx	4d54 <spin1_memcpy>
    12a0:	e1a00009 	mov	r0, r9
    12a4:	e5981030 	ldr	r1, [r8, #48]	; 0x30
    12a8:	e1a02004 	mov	r2, r4
    12ac:	fa000ea8 	blx	4d54 <spin1_memcpy>
    12b0:	e3a00018 	mov	r0, #24
    12b4:	e0070790 	mul	r7, r0, r7
    12b8:	e0854124 	add	r4, r5, r4, lsr #2
    12bc:	e0860104 	add	r0, r6, r4, lsl #2
    12c0:	e5981034 	ldr	r1, [r8, #52]	; 0x34
    12c4:	e1a02007 	mov	r2, r7
    12c8:	fa000ea1 	blx	4d54 <spin1_memcpy>
    12cc:	e0840127 	add	r0, r4, r7, lsr #2
    12d0:	e0860100 	add	r0, r6, r0, lsl #2
    12d4:	e5981038 	ldr	r1, [r8, #56]	; 0x38
    12d8:	e3a02000 	mov	r2, #0
    12dc:	e8bd43f8 	pop	{r3, r4, r5, r6, r7, r8, r9, lr}
    12e0:	ea001046 	b	5400 <__spin1_memcpy_from_arm>
    12e4:	0040006c 	.word	0x0040006c

000012e8 <neuron_do_timestep_update>:
    12e8:	e59f331c 	ldr	r3, [pc, #796]	; 160c <neuron_do_timestep_update+0x324>
    12ec:	e92d4ff0 	push	{r4, r5, r6, r7, r8, r9, sl, fp, lr}
    12f0:	e28db020 	add	fp, sp, #32
    12f4:	e24dd01c 	sub	sp, sp, #28
    12f8:	e1d332b4 	ldrh	r3, [r3, #36]	; 0x24
    12fc:	e59f430c 	ldr	r4, [pc, #780]	; 1610 <neuron_do_timestep_update+0x328>
    1300:	e0020293 	mul	r2, r3, r2
    1304:	e50b0028 	str	r0, [fp, #-40]	; 0xffffffd8
    1308:	e50b1034 	str	r1, [fp, #-52]	; 0xffffffcc
    130c:	e584205c 	str	r2, [r4, #92]	; 0x5c
    1310:	e5943000 	ldr	r3, [r4]
    1314:	e3530000 	cmp	r3, #0
    1318:	0a000001 	beq	1324 <neuron_do_timestep_update+0x3c>
    131c:	ebfffbaf 	bl	1e0 <cpu_wfi>
    1320:	eafffffa 	b	1310 <neuron_do_timestep_update+0x28>
    1324:	e59f32e4 	ldr	r3, [pc, #740]	; 1610 <neuron_do_timestep_update+0x328>
    1328:	e5933058 	ldr	r3, [r3, #88]	; 0x58
    132c:	e3530001 	cmp	r3, #1
    1330:	1a000000 	bne	1338 <neuron_do_timestep_update+0x50>
    1334:	ebfffc24 	bl	3cc <out_spikes_reset>
    1338:	e5943020 	ldr	r3, [r4, #32]
    133c:	e3a07000 	mov	r7, #0
    1340:	e1a03103 	lsl	r3, r3, #2
    1344:	e283300a 	add	r3, r3, #10
    1348:	e3c33007 	bic	r3, r3, #7
    134c:	e04dd003 	sub	sp, sp, r3
    1350:	e28da008 	add	sl, sp, #8
    1354:	e5943004 	ldr	r3, [r4, #4]
    1358:	e59f52b0 	ldr	r5, [pc, #688]	; 1610 <neuron_do_timestep_update+0x328>
    135c:	e1570003 	cmp	r7, r3
    1360:	2a00006f 	bcs	1524 <neuron_do_timestep_update+0x23c>
    1364:	e1a01007 	mov	r1, r7
    1368:	e51b0028 	ldr	r0, [fp, #-40]	; 0xffffffd8
    136c:	eb000432 	bl	243c <synapse_dynamics_get_intrinsic_bias>
    1370:	e5958028 	ldr	r8, [r5, #40]	; 0x28
    1374:	e3a03018 	mov	r3, #24
    1378:	e0020793 	mul	r2, r3, r7
    137c:	e0888287 	add	r8, r8, r7, lsl #5
    1380:	e5953034 	ldr	r3, [r5, #52]	; 0x34
    1384:	e5959030 	ldr	r9, [r5, #48]	; 0x30
    1388:	e50b202c 	str	r2, [fp, #-44]	; 0xffffffd4
    138c:	e0835002 	add	r5, r3, r2
    1390:	e50b3030 	str	r3, [fp, #-48]	; 0xffffffd0
    1394:	e1a06000 	mov	r6, r0
    1398:	e1a00008 	mov	r0, r8
    139c:	eb0002fd 	bl	1f98 <neuron_model_get_membrane_voltage>
    13a0:	e5952008 	ldr	r2, [r5, #8]
    13a4:	e595c014 	ldr	ip, [r5, #20]
    13a8:	e59f1264 	ldr	r1, [pc, #612]	; 1614 <neuron_do_timestep_update+0x32c>
    13ac:	e59f3264 	ldr	r3, [pc, #612]	; 1618 <neuron_do_timestep_update+0x330>
    13b0:	e5812000 	str	r2, [r1]
    13b4:	e583c000 	str	ip, [r3]
    13b8:	e58a0000 	str	r0, [sl]
    13bc:	e3a00000 	mov	r0, #0
    13c0:	e0822000 	add	r2, r2, r0
    13c4:	e08cc000 	add	ip, ip, r0
    13c8:	e0866000 	add	r6, r6, r0
    13cc:	e3a00001 	mov	r0, #1
    13d0:	e58a2004 	str	r2, [sl, #4]
    13d4:	e58ac008 	str	ip, [sl, #8]
    13d8:	e1a02000 	mov	r2, r0
    13dc:	e88d0140 	stm	sp, {r6, r8}
    13e0:	eb0002bc 	bl	1ed8 <neuron_model_state_update>
    13e4:	e7996107 	ldr	r6, [r9, r7, lsl #2]
    13e8:	e1560000 	cmp	r6, r0
    13ec:	c3a06000 	movgt	r6, #0
    13f0:	d3a06001 	movle	r6, #1
    13f4:	e3560000 	cmp	r6, #0
    13f8:	0a000001 	beq	1404 <neuron_do_timestep_update+0x11c>
    13fc:	e1a00008 	mov	r0, r8
    1400:	eb0002df 	bl	1f84 <neuron_model_has_spiked>
    1404:	e51b3030 	ldr	r3, [fp, #-48]	; 0xffffffd0
    1408:	e51b202c 	ldr	r2, [fp, #-44]	; 0xffffffd4
    140c:	e595c008 	ldr	ip, [r5, #8]
    1410:	e7932002 	ldr	r2, [r3, r2]
    1414:	e1a09fcc 	asr	r9, ip, #31
    1418:	e081029c 	umull	r0, r1, ip, r2
    141c:	e595c014 	ldr	ip, [r5, #20]
    1420:	e0221299 	mla	r2, r9, r2, r1
    1424:	e1a09fcc 	asr	r9, ip, #31
    1428:	e5852008 	str	r2, [r5, #8]
    142c:	e595200c 	ldr	r2, [r5, #12]
    1430:	e3a03000 	mov	r3, #0
    1434:	e081029c 	umull	r0, r1, ip, r2
    1438:	e594001c 	ldr	r0, [r4, #28]
    143c:	e0221299 	mla	r2, r9, r2, r1
    1440:	e594c050 	ldr	ip, [r4, #80]	; 0x50
    1444:	e5941020 	ldr	r1, [r4, #32]
    1448:	e5852014 	str	r2, [r5, #20]
    144c:	e1530001 	cmp	r3, r1
    1450:	0a000007 	beq	1474 <neuron_do_timestep_update+0x18c>
    1454:	e790e103 	ldr	lr, [r0, r3, lsl #2]
    1458:	e79c2103 	ldr	r2, [ip, r3, lsl #2]
    145c:	e7dee007 	ldrb	lr, [lr, r7]
    1460:	e082210e 	add	r2, r2, lr, lsl #2
    1464:	e79ae103 	ldr	lr, [sl, r3, lsl #2]
    1468:	e582e004 	str	lr, [r2, #4]
    146c:	e2833001 	add	r3, r3, #1
    1470:	eafffff5 	b	144c <neuron_do_timestep_update+0x164>
    1474:	e3560000 	cmp	r6, #0
    1478:	0a000027 	beq	151c <neuron_do_timestep_update+0x234>
    147c:	e5943010 	ldr	r3, [r4, #16]
    1480:	e59f2194 	ldr	r2, [pc, #404]	; 161c <neuron_do_timestep_update+0x334>
    1484:	e7d33007 	ldrb	r3, [r3, r7]
    1488:	e5921000 	ldr	r1, [r2]
    148c:	e1a002a3 	lsr	r0, r3, #5
    1490:	e7912100 	ldr	r2, [r1, r0, lsl #2]
    1494:	e3a0c001 	mov	ip, #1
    1498:	e203301f 	and	r3, r3, #31
    149c:	e182331c 	orr	r3, r2, ip, lsl r3
    14a0:	e7813100 	str	r3, [r1, r0, lsl #2]
    14a4:	e51b0028 	ldr	r0, [fp, #-40]	; 0xffffffd8
    14a8:	e1a01007 	mov	r1, r7
    14ac:	eb0003b5 	bl	2388 <synapse_dynamics_process_post_synaptic_event>
    14b0:	e5d43040 	ldrb	r3, [r4, #64]	; 0x40
    14b4:	e3530000 	cmp	r3, #0
    14b8:	0a000017 	beq	151c <neuron_do_timestep_update+0x234>
    14bc:	e59f215c 	ldr	r2, [pc, #348]	; 1620 <neuron_do_timestep_update+0x338>
    14c0:	e51b1034 	ldr	r1, [fp, #-52]	; 0xffffffcc
    14c4:	e5922000 	ldr	r2, [r2]
    14c8:	e59f3140 	ldr	r3, [pc, #320]	; 1610 <neuron_do_timestep_update+0x328>
    14cc:	e1520001 	cmp	r2, r1
    14d0:	e593305c 	ldr	r3, [r3, #92]	; 0x5c
    14d4:	1a000003 	bne	14e8 <neuron_do_timestep_update+0x200>
    14d8:	e3a02421 	mov	r2, #553648128	; 0x21000000
    14dc:	e5922004 	ldr	r2, [r2, #4]
    14e0:	e1520003 	cmp	r2, r3
    14e4:	8afffffb 	bhi	14d8 <neuron_do_timestep_update+0x1f0>
    14e8:	e594203c 	ldr	r2, [r4, #60]	; 0x3c
    14ec:	e0623003 	rsb	r3, r2, r3
    14f0:	e584305c 	str	r3, [r4, #92]	; 0x5c
    14f4:	e5940044 	ldr	r0, [r4, #68]	; 0x44
    14f8:	e3a01000 	mov	r1, #0
    14fc:	e1870000 	orr	r0, r7, r0
    1500:	e1a02001 	mov	r2, r1
    1504:	fa000e53 	blx	4e58 <spin1_send_mc_packet>
    1508:	e3500000 	cmp	r0, #0
    150c:	1a000002 	bne	151c <neuron_do_timestep_update+0x234>
    1510:	e3a00001 	mov	r0, #1
    1514:	fa000de2 	blx	4ca4 <spin1_delay_us>
    1518:	eafffff5 	b	14f4 <neuron_do_timestep_update+0x20c>
    151c:	e2877001 	add	r7, r7, #1
    1520:	eaffff8b 	b	1354 <neuron_do_timestep_update+0x6c>
    1524:	ebfffb27 	bl	1c8 <cpu_int_disable>
    1528:	e3a03000 	mov	r3, #0
    152c:	e1a06000 	mov	r6, r0
    1530:	e5942020 	ldr	r2, [r4, #32]
    1534:	e59f50d4 	ldr	r5, [pc, #212]	; 1610 <neuron_do_timestep_update+0x328>
    1538:	e1530002 	cmp	r3, r2
    153c:	2a00001b 	bcs	15b0 <neuron_do_timestep_update+0x2c8>
    1540:	e5952048 	ldr	r2, [r5, #72]	; 0x48
    1544:	e5951014 	ldr	r1, [r5, #20]
    1548:	e7920103 	ldr	r0, [r2, r3, lsl #2]
    154c:	e7911103 	ldr	r1, [r1, r3, lsl #2]
    1550:	e2837001 	add	r7, r3, #1
    1554:	e1500001 	cmp	r0, r1
    1558:	1a00000e 	bne	1598 <neuron_do_timestep_update+0x2b0>
    155c:	e3a01001 	mov	r1, #1
    1560:	e7821103 	str	r1, [r2, r3, lsl #2]
    1564:	e5952000 	ldr	r2, [r5]
    1568:	e20700ff 	and	r0, r7, #255	; 0xff
    156c:	e0822001 	add	r2, r2, r1
    1570:	e5852000 	str	r2, [r5]
    1574:	e5952050 	ldr	r2, [r5, #80]	; 0x50
    1578:	e7921103 	ldr	r1, [r2, r3, lsl #2]
    157c:	e51b2028 	ldr	r2, [fp, #-40]	; 0xffffffd8
    1580:	e5812000 	str	r2, [r1]
    1584:	e5952018 	ldr	r2, [r5, #24]
    1588:	e7922103 	ldr	r2, [r2, r3, lsl #2]
    158c:	e59f3090 	ldr	r3, [pc, #144]	; 1624 <neuron_do_timestep_update+0x33c>
    1590:	eb000625 	bl	2e2c <recording_record_and_notify>
    1594:	ea000003 	b	15a8 <neuron_do_timestep_update+0x2c0>
    1598:	e595104c 	ldr	r1, [r5, #76]	; 0x4c
    159c:	e7911103 	ldr	r1, [r1, r3, lsl #2]
    15a0:	e0811000 	add	r1, r1, r0
    15a4:	e7821103 	str	r1, [r2, r3, lsl #2]
    15a8:	e1a03007 	mov	r3, r7
    15ac:	eaffffdf 	b	1530 <neuron_do_timestep_update+0x248>
    15b0:	e5953008 	ldr	r3, [r5, #8]
    15b4:	e5952058 	ldr	r2, [r5, #88]	; 0x58
    15b8:	e1520003 	cmp	r2, r3
    15bc:	15953054 	ldrne	r3, [r5, #84]	; 0x54
    15c0:	10833002 	addne	r3, r3, r2
    15c4:	15853058 	strne	r3, [r5, #88]	; 0x58
    15c8:	1a00000a 	bne	15f8 <neuron_do_timestep_update+0x310>
    15cc:	e3a03001 	mov	r3, #1
    15d0:	e5853058 	str	r3, [r5, #88]	; 0x58
    15d4:	e3a00000 	mov	r0, #0
    15d8:	e59f3044 	ldr	r3, [pc, #68]	; 1624 <neuron_do_timestep_update+0x33c>
    15dc:	e51b1028 	ldr	r1, [fp, #-40]	; 0xffffffd8
    15e0:	e595200c 	ldr	r2, [r5, #12]
    15e4:	ebfffbb3 	bl	4b8 <out_spikes_record>
    15e8:	e3500000 	cmp	r0, #0
    15ec:	15953000 	ldrne	r3, [r5]
    15f0:	12833001 	addne	r3, r3, #1
    15f4:	15853000 	strne	r3, [r5]
    15f8:	ebfffbce 	bl	538 <out_spikes_print>
    15fc:	e1a00006 	mov	r0, r6
    1600:	ebfffaf4 	bl	1d8 <cpu_int_restore>
    1604:	e24bd020 	sub	sp, fp, #32
    1608:	e8bd8ff0 	pop	{r4, r5, r6, r7, r8, r9, sl, fp, pc}
    160c:	e5007f00 	.word	0xe5007f00
    1610:	0040006c 	.word	0x0040006c
    1614:	00400688 	.word	0x00400688
    1618:	00400684 	.word	0x00400684
    161c:	0040067c 	.word	0x0040067c
    1620:	00400b2c 	.word	0x00400b2c
    1624:	00000d88 	.word	0x00000d88

00001628 <neuron_add_inputs>:
    1628:	e59f306c 	ldr	r3, [pc, #108]	; 169c <neuron_add_inputs+0x74>
    162c:	e3a0c018 	mov	ip, #24
    1630:	e5933034 	ldr	r3, [r3, #52]	; 0x34
    1634:	e3500000 	cmp	r0, #0
    1638:	e92d43f0 	push	{r4, r5, r6, r7, r8, r9, lr}
    163c:	e021319c 	mla	r1, ip, r1, r3
    1640:	1a000009 	bne	166c <neuron_add_inputs+0x44>
    1644:	e5914004 	ldr	r4, [r1, #4]
    1648:	e1a09fc2 	asr	r9, r2, #31
    164c:	e0876492 	umull	r6, r7, r2, r4
    1650:	e5913008 	ldr	r3, [r1, #8]
    1654:	e0247499 	mla	r4, r9, r4, r7
    1658:	e1a08002 	mov	r8, r2
    165c:	e0834004 	add	r4, r3, r4
    1660:	e3a05000 	mov	r5, #0
    1664:	e5814008 	str	r4, [r1, #8]
    1668:	e8bd83f0 	pop	{r4, r5, r6, r7, r8, r9, pc}
    166c:	e3500001 	cmp	r0, #1
    1670:	18bd83f0 	popne	{r4, r5, r6, r7, r8, r9, pc}
    1674:	e5914010 	ldr	r4, [r1, #16]
    1678:	e1a09fc2 	asr	r9, r2, #31
    167c:	e0876492 	umull	r6, r7, r2, r4
    1680:	e5913014 	ldr	r3, [r1, #20]
    1684:	e0247499 	mla	r4, r9, r4, r7
    1688:	e1a08002 	mov	r8, r2
    168c:	e0834004 	add	r4, r3, r4
    1690:	e3a05000 	mov	r5, #0
    1694:	e5814014 	str	r4, [r1, #20]
    1698:	e8bd83f0 	pop	{r4, r5, r6, r7, r8, r9, pc}
    169c:	0040006c 	.word	0x0040006c

000016a0 <_multicast_packet_received_callback>:
    16a0:	e92d4038 	push	{r3, r4, r5, lr}
    16a4:	e59f406c 	ldr	r4, [pc, #108]	; 1718 <_multicast_packet_received_callback+0x78>
    16a8:	e3a05001 	mov	r5, #1
    16ac:	e5943004 	ldr	r3, [r4, #4]
    16b0:	e5c45000 	strb	r5, [r4]
    16b4:	e593100c 	ldr	r1, [r3, #12]
    16b8:	e5932004 	ldr	r2, [r3, #4]
    16bc:	e081c005 	add	ip, r1, r5
    16c0:	e002200c 	and	r2, r2, ip
    16c4:	e593c008 	ldr	ip, [r3, #8]
    16c8:	e152000c 	cmp	r2, ip
    16cc:	05932010 	ldreq	r2, [r3, #16]
    16d0:	02822001 	addeq	r2, r2, #1
    16d4:	05832010 	streq	r2, [r3, #16]
    16d8:	08bd8038 	popeq	{r3, r4, r5, pc}
    16dc:	e5932000 	ldr	r2, [r3]
    16e0:	e7820101 	str	r0, [r2, r1, lsl #2]
    16e4:	e593200c 	ldr	r2, [r3, #12]
    16e8:	e5d40008 	ldrb	r0, [r4, #8]
    16ec:	e0821005 	add	r1, r2, r5
    16f0:	e5932004 	ldr	r2, [r3, #4]
    16f4:	e3500000 	cmp	r0, #0
    16f8:	e0022001 	and	r2, r2, r1
    16fc:	e583200c 	str	r2, [r3, #12]
    1700:	18bd8038 	popne	{r3, r4, r5, pc}
    1704:	e1a01000 	mov	r1, r0
    1708:	fa000e01 	blx	4f14 <spin1_trigger_user_event>
    170c:	e3500000 	cmp	r0, #0
    1710:	15c45008 	strbne	r5, [r4, #8]
    1714:	e8bd8038 	pop	{r3, r4, r5, pc}
    1718:	004000cc 	.word	0x004000cc

0000171c <_setup_synaptic_dma_read>:
    171c:	e92d40f0 	push	{r4, r5, r6, r7, lr}
    1720:	e24dd014 	sub	sp, sp, #20
    1724:	ebfffaa7 	bl	1c8 <cpu_int_disable>
    1728:	e59f614c 	ldr	r6, [pc, #332]	; 187c <_setup_synaptic_dma_read+0x160>
    172c:	e596300c 	ldr	r3, [r6, #12]
    1730:	e1a04006 	mov	r4, r6
    1734:	e3530000 	cmp	r3, #0
    1738:	e1a05000 	mov	r5, r0
    173c:	1a00004a 	bne	186c <_setup_synaptic_dma_read+0x150>
    1740:	e28d0008 	add	r0, sp, #8
    1744:	e28d100c 	add	r1, sp, #12
    1748:	eb00018d 	bl	1d84 <population_table_get_next_address>
    174c:	e3500000 	cmp	r0, #0
    1750:	1a000045 	bne	186c <_setup_synaptic_dma_read+0x150>
    1754:	e5943004 	ldr	r3, [r4, #4]
    1758:	e5932008 	ldr	r2, [r3, #8]
    175c:	e593100c 	ldr	r1, [r3, #12]
    1760:	e1510002 	cmp	r1, r2
    1764:	0a000012 	beq	17b4 <_setup_synaptic_dma_read+0x98>
    1768:	e5931000 	ldr	r1, [r3]
    176c:	e59f710c 	ldr	r7, [pc, #268]	; 1880 <_setup_synaptic_dma_read+0x164>
    1770:	e7911102 	ldr	r1, [r1, r2, lsl #2]
    1774:	e5871000 	str	r1, [r7]
    1778:	e5931004 	ldr	r1, [r3, #4]
    177c:	e2822001 	add	r2, r2, #1
    1780:	e0022001 	and	r2, r2, r1
    1784:	e5832008 	str	r2, [r3, #8]
    1788:	e1a00005 	mov	r0, r5
    178c:	ebfffa91 	bl	1d8 <cpu_int_restore>
    1790:	e5970000 	ldr	r0, [r7]
    1794:	e28d1008 	add	r1, sp, #8
    1798:	e28d200c 	add	r2, sp, #12
    179c:	eb0001ab 	bl	1e50 <population_table_get_first_address>
    17a0:	e1a07000 	mov	r7, r0
    17a4:	ebfffa87 	bl	1c8 <cpu_int_disable>
    17a8:	e3570000 	cmp	r7, #0
    17ac:	e1a05000 	mov	r5, r0
    17b0:	eaffffe6 	b	1750 <_setup_synaptic_dma_read+0x34>
    17b4:	e59f30c0 	ldr	r3, [pc, #192]	; 187c <_setup_synaptic_dma_read+0x160>
    17b8:	e3a04000 	mov	r4, #0
    17bc:	e5c34008 	strb	r4, [r3, #8]
    17c0:	e1a00005 	mov	r0, r5
    17c4:	ebfffa83 	bl	1d8 <cpu_int_restore>
    17c8:	e3540000 	cmp	r4, #0
    17cc:	0a000028 	beq	1874 <_setup_synaptic_dma_read+0x158>
    17d0:	e596000c 	ldr	r0, [r6, #12]
    17d4:	e59f40a0 	ldr	r4, [pc, #160]	; 187c <_setup_synaptic_dma_read+0x160>
    17d8:	e3500000 	cmp	r0, #0
    17dc:	0a000005 	beq	17f8 <_setup_synaptic_dma_read+0xdc>
    17e0:	e59f309c 	ldr	r3, [pc, #156]	; 1884 <_setup_synaptic_dma_read+0x168>
    17e4:	e2400001 	sub	r0, r0, #1
    17e8:	e584000c 	str	r0, [r4, #12]
    17ec:	e5930000 	ldr	r0, [r3]
    17f0:	eb000360 	bl	2578 <synaptogenesis_dynamics_rewire>
    17f4:	ea00001e 	b	1874 <_setup_synaptic_dma_read+0x158>
    17f8:	e59d200c 	ldr	r2, [sp, #12]
    17fc:	e59d1008 	ldr	r1, [sp, #8]
    1800:	e3520000 	cmp	r2, #0
    1804:	1a000007 	bne	1828 <_setup_synaptic_dma_read+0x10c>
    1808:	e5913000 	ldr	r3, [r1]
    180c:	e584301c 	str	r3, [r4, #28]
    1810:	e59f306c 	ldr	r3, [pc, #108]	; 1884 <_setup_synaptic_dma_read+0x168>
    1814:	e2841010 	add	r1, r4, #16
    1818:	e5930000 	ldr	r0, [r3]
    181c:	e1a03002 	mov	r3, r2
    1820:	ebfffccd 	bl	b5c <synapses_process_synaptic_row>
    1824:	eaffffbe 	b	1724 <_setup_synaptic_dma_read+0x8>
    1828:	e594c020 	ldr	ip, [r4, #32]
    182c:	e59fe04c 	ldr	lr, [pc, #76]	; 1880 <_setup_synaptic_dma_read+0x164>
    1830:	e084320c 	add	r3, r4, ip, lsl #4
    1834:	e59ee000 	ldr	lr, [lr]
    1838:	e583202c 	str	r2, [r3, #44]	; 0x2c
    183c:	e5831024 	str	r1, [r3, #36]	; 0x24
    1840:	e583e028 	str	lr, [r3, #40]	; 0x28
    1844:	e584c044 	str	ip, [r4, #68]	; 0x44
    1848:	e58d2000 	str	r2, [sp]
    184c:	e5932030 	ldr	r2, [r3, #48]	; 0x30
    1850:	e1a03000 	mov	r3, r0
    1854:	fa000d14 	blx	4cac <spin1_dma_transfer>
    1858:	e5943020 	ldr	r3, [r4, #32]
    185c:	e2833001 	add	r3, r3, #1
    1860:	e2033001 	and	r3, r3, #1
    1864:	e5843020 	str	r3, [r4, #32]
    1868:	ea000001 	b	1874 <_setup_synaptic_dma_read+0x158>
    186c:	e3a04001 	mov	r4, #1
    1870:	eaffffd2 	b	17c0 <_setup_synaptic_dma_read+0xa4>
    1874:	e28dd014 	add	sp, sp, #20
    1878:	e8bd80f0 	pop	{r4, r5, r6, r7, pc}
    187c:	004000cc 	.word	0x004000cc
    1880:	00400000 	.word	0x00400000
    1884:	00400680 	.word	0x00400680

00001888 <_user_event_callback>:
    1888:	eaffffa3 	b	171c <_setup_synaptic_dma_read>

0000188c <_dma_complete_callback>:
    188c:	e92d43f7 	push	{r0, r1, r2, r4, r5, r6, r7, r8, r9, lr}
    1890:	e59f40e8 	ldr	r4, [pc, #232]	; 1980 <_dma_complete_callback+0xf4>
    1894:	e5947044 	ldr	r7, [r4, #68]	; 0x44
    1898:	e1a06207 	lsl	r6, r7, #4
    189c:	e0843006 	add	r3, r4, r6
    18a0:	e5931028 	ldr	r1, [r3, #40]	; 0x28
    18a4:	e5943004 	ldr	r3, [r4, #4]
    18a8:	e5932008 	ldr	r2, [r3, #8]
    18ac:	e593000c 	ldr	r0, [r3, #12]
    18b0:	e1500002 	cmp	r0, r2
    18b4:	0a000009 	beq	18e0 <_dma_complete_callback+0x54>
    18b8:	e5930000 	ldr	r0, [r3]
    18bc:	e7900102 	ldr	r0, [r0, r2, lsl #2]
    18c0:	e1500001 	cmp	r0, r1
    18c4:	1a000005 	bne	18e0 <_dma_complete_callback+0x54>
    18c8:	e5931004 	ldr	r1, [r3, #4]
    18cc:	e2822001 	add	r2, r2, #1
    18d0:	e0022001 	and	r2, r2, r1
    18d4:	e5832008 	str	r2, [r3, #8]
    18d8:	e3a08001 	mov	r8, #1
    18dc:	ea000000 	b	18e4 <_dma_complete_callback+0x58>
    18e0:	e3a08000 	mov	r8, #0
    18e4:	e59f3098 	ldr	r3, [pc, #152]	; 1984 <_dma_complete_callback+0xf8>
    18e8:	e0849006 	add	r9, r4, r6
    18ec:	e5930000 	ldr	r0, [r3]
    18f0:	e5991030 	ldr	r1, [r9, #48]	; 0x30
    18f4:	e2282001 	eor	r2, r8, #1
    18f8:	e1a03007 	mov	r3, r7
    18fc:	ebfffc96 	bl	b5c <synapses_process_synaptic_row>
    1900:	e2505000 	subs	r5, r0, #0
    1904:	1a000018 	bne	196c <_dma_complete_callback+0xe0>
    1908:	e5993024 	ldr	r3, [r9, #36]	; 0x24
    190c:	e58d3000 	str	r3, [sp]
    1910:	e5993030 	ldr	r3, [r9, #48]	; 0x30
    1914:	e58d3004 	str	r3, [sp, #4]
    1918:	e3a00002 	mov	r0, #2
    191c:	e59f1064 	ldr	r1, [pc, #100]	; 1988 <_dma_complete_callback+0xfc>
    1920:	e59f2064 	ldr	r2, [pc, #100]	; 198c <_dma_complete_callback+0x100>
    1924:	e5993028 	ldr	r3, [r9, #40]	; 0x28
    1928:	fa000a91 	blx	4374 <io_printf>
    192c:	e0843006 	add	r3, r4, r6
    1930:	e593202c 	ldr	r2, [r3, #44]	; 0x2c
    1934:	e1550122 	cmp	r5, r2, lsr #2
    1938:	2a000009 	bcs	1964 <_dma_complete_callback+0xd8>
    193c:	e5933030 	ldr	r3, [r3, #48]	; 0x30
    1940:	e3a00002 	mov	r0, #2
    1944:	e7933105 	ldr	r3, [r3, r5, lsl #2]
    1948:	e58d3000 	str	r3, [sp]
    194c:	e59f103c 	ldr	r1, [pc, #60]	; 1990 <_dma_complete_callback+0x104>
    1950:	e1a03005 	mov	r3, r5
    1954:	e59f2038 	ldr	r2, [pc, #56]	; 1994 <_dma_complete_callback+0x108>
    1958:	fa000a85 	blx	4374 <io_printf>
    195c:	e2855001 	add	r5, r5, #1
    1960:	eafffff1 	b	192c <_dma_complete_callback+0xa0>
    1964:	e3a0000d 	mov	r0, #13
    1968:	ebfff9ef 	bl	12c <rt_error>
    196c:	e3580000 	cmp	r8, #0
    1970:	1affffc8 	bne	1898 <_dma_complete_callback+0xc>
    1974:	e28dd00c 	add	sp, sp, #12
    1978:	e8bd43f0 	pop	{r4, r5, r6, r7, r8, r9, lr}
    197c:	eaffff66 	b	171c <_setup_synaptic_dma_read>
    1980:	004000cc 	.word	0x004000cc
    1984:	00400680 	.word	0x00400680
    1988:	0000543f 	.word	0x0000543f
    198c:	00001bbc 	.word	0x00001bbc
    1990:	00005452 	.word	0x00005452
    1994:	00001bbd 	.word	0x00001bbd

00001998 <spike_processing_initialise>:
    1998:	e92d43f8 	push	{r3, r4, r5, r6, r7, r8, r9, lr}
    199c:	e1a06100 	lsl	r6, r0, #2
    19a0:	e1a04000 	mov	r4, r0
    19a4:	e1a00006 	mov	r0, r6
    19a8:	e1a08001 	mov	r8, r1
    19ac:	e1a07002 	mov	r7, r2
    19b0:	e1a09003 	mov	r9, r3
    19b4:	fa000d31 	blx	4e80 <spin1_malloc>
    19b8:	e59f50a8 	ldr	r5, [pc, #168]	; 1a68 <spike_processing_initialise+0xd0>
    19bc:	e3500000 	cmp	r0, #0
    19c0:	e5850030 	str	r0, [r5, #48]	; 0x30
    19c4:	0a000010 	beq	1a0c <spike_processing_initialise+0x74>
    19c8:	e1a00006 	mov	r0, r6
    19cc:	fa000d2b 	blx	4e80 <spin1_malloc>
    19d0:	e3500000 	cmp	r0, #0
    19d4:	e5850040 	str	r0, [r5, #64]	; 0x40
    19d8:	0a00000b 	beq	1a0c <spike_processing_initialise+0x74>
    19dc:	e3a06000 	mov	r6, #0
    19e0:	e3a03002 	mov	r3, #2
    19e4:	e1a00009 	mov	r0, r9
    19e8:	e5c56008 	strb	r6, [r5, #8]
    19ec:	e5856020 	str	r6, [r5, #32]
    19f0:	e5853044 	str	r3, [r5, #68]	; 0x44
    19f4:	e5854048 	str	r4, [r5, #72]	; 0x48
    19f8:	eb000773 	bl	37cc <circular_buffer_initialize>
    19fc:	e1500006 	cmp	r0, r6
    1a00:	e5850004 	str	r0, [r5, #4]
    1a04:	1a000006 	bne	1a24 <spike_processing_initialise+0x8c>
    1a08:	e8bd83f8 	pop	{r3, r4, r5, r6, r7, r8, r9, pc}
    1a0c:	e3a00002 	mov	r0, #2
    1a10:	e59f1054 	ldr	r1, [pc, #84]	; 1a6c <spike_processing_initialise+0xd4>
    1a14:	e59f2054 	ldr	r2, [pc, #84]	; 1a70 <spike_processing_initialise+0xd8>
    1a18:	fa000a55 	blx	4374 <io_printf>
    1a1c:	e3a00000 	mov	r0, #0
    1a20:	e8bd83f8 	pop	{r3, r4, r5, r6, r7, r8, r9, pc}
    1a24:	e1a02008 	mov	r2, r8
    1a28:	e3a04001 	mov	r4, #1
    1a2c:	e1a00006 	mov	r0, r6
    1a30:	e59f103c 	ldr	r1, [pc, #60]	; 1a74 <spike_processing_initialise+0xdc>
    1a34:	e5856010 	str	r6, [r5, #16]
    1a38:	e5854014 	str	r4, [r5, #20]
    1a3c:	e5856018 	str	r6, [r5, #24]
    1a40:	fa000bdb 	blx	49b4 <spin1_callback_on>
    1a44:	e1a00006 	mov	r0, r6
    1a48:	e59f1028 	ldr	r1, [pc, #40]	; 1a78 <spike_processing_initialise+0xe0>
    1a4c:	eb0003d8 	bl	29b4 <simulation_dma_transfer_done_callback_on>
    1a50:	e3a00004 	mov	r0, #4
    1a54:	e59f1020 	ldr	r1, [pc, #32]	; 1a7c <spike_processing_initialise+0xe4>
    1a58:	e1a02007 	mov	r2, r7
    1a5c:	fa000bd4 	blx	49b4 <spin1_callback_on>
    1a60:	e1a00004 	mov	r0, r4
    1a64:	e8bd83f8 	pop	{r3, r4, r5, r6, r7, r8, r9, pc}
    1a68:	004000cc 	.word	0x004000cc
    1a6c:	0000551f 	.word	0x0000551f
    1a70:	00001bbe 	.word	0x00001bbe
    1a74:	000016a0 	.word	0x000016a0
    1a78:	0000188c 	.word	0x0000188c
    1a7c:	00001888 	.word	0x00001888

00001a80 <spike_processing_finish_write>:
    1a80:	e59f3034 	ldr	r3, [pc, #52]	; 1abc <spike_processing_finish_write+0x3c>
    1a84:	e92d4007 	push	{r0, r1, r2, lr}
    1a88:	e0830200 	add	r0, r3, r0, lsl #4
    1a8c:	e5902030 	ldr	r2, [r0, #48]	; 0x30
    1a90:	e5901024 	ldr	r1, [r0, #36]	; 0x24
    1a94:	e5923000 	ldr	r3, [r2]
    1a98:	e3a00001 	mov	r0, #1
    1a9c:	e1a03103 	lsl	r3, r3, #2
    1aa0:	e58d3000 	str	r3, [sp]
    1aa4:	e2811004 	add	r1, r1, #4
    1aa8:	e2822004 	add	r2, r2, #4
    1aac:	e1a03000 	mov	r3, r0
    1ab0:	fa000c7d 	blx	4cac <spin1_dma_transfer>
    1ab4:	e28dd00c 	add	sp, sp, #12
    1ab8:	e49df004 	pop	{pc}		; (ldr pc, [sp], #4)
    1abc:	004000cc 	.word	0x004000cc

00001ac0 <spike_processing_get_buffer_overflows>:
    1ac0:	e59f3008 	ldr	r3, [pc, #8]	; 1ad0 <spike_processing_get_buffer_overflows+0x10>
    1ac4:	e5933004 	ldr	r3, [r3, #4]
    1ac8:	e5930010 	ldr	r0, [r3, #16]
    1acc:	e12fff1e 	bx	lr
    1ad0:	004000cc 	.word	0x004000cc

00001ad4 <get_circular_buffer>:
    1ad4:	e59f3004 	ldr	r3, [pc, #4]	; 1ae0 <get_circular_buffer+0xc>
    1ad8:	e5930004 	ldr	r0, [r3, #4]
    1adc:	e12fff1e 	bx	lr
    1ae0:	004000cc 	.word	0x004000cc

00001ae4 <set_dma_busy>:
    1ae4:	e59f3004 	ldr	r3, [pc, #4]	; 1af0 <set_dma_busy+0xc>
    1ae8:	e5c30008 	strb	r0, [r3, #8]
    1aec:	e12fff1e 	bx	lr
    1af0:	004000cc 	.word	0x004000cc

00001af4 <get_dma_busy>:
    1af4:	e59f3004 	ldr	r3, [pc, #4]	; 1b00 <get_dma_busy+0xc>
    1af8:	e5d30008 	ldrb	r0, [r3, #8]
    1afc:	e12fff1e 	bx	lr
    1b00:	004000cc 	.word	0x004000cc

00001b04 <do_rewiring>:
    1b04:	e59f2010 	ldr	r2, [pc, #16]	; 1b1c <do_rewiring+0x18>
    1b08:	e592300c 	ldr	r3, [r2, #12]
    1b0c:	e0800003 	add	r0, r0, r3
    1b10:	e582000c 	str	r0, [r2, #12]
    1b14:	e3a00001 	mov	r0, #1
    1b18:	e12fff1e 	bx	lr
    1b1c:	004000cc 	.word	0x004000cc

00001b20 <received_any_spike>:
    1b20:	e59f3004 	ldr	r3, [pc, #4]	; 1b2c <received_any_spike+0xc>
    1b24:	e5d30000 	ldrb	r0, [r3]
    1b28:	e12fff1e 	bx	lr
    1b2c:	004000cc 	.word	0x004000cc

00001b30 <population_table_initialise>:
    1b30:	e92d4ff0 	push	{r4, r5, r6, r7, r8, r9, sl, fp, lr}
    1b34:	e1a0a003 	mov	sl, r3
    1b38:	e5903000 	ldr	r3, [r0]
    1b3c:	e1a08002 	mov	r8, r2
    1b40:	e3a0200c 	mov	r2, #12
    1b44:	e0070392 	mul	r7, r2, r3
    1b48:	e59f61f8 	ldr	r6, [pc, #504]	; 1d48 <population_table_initialise+0x218>
    1b4c:	e24dd024 	sub	sp, sp, #36	; 0x24
    1b50:	e5863000 	str	r3, [r6]
    1b54:	e3570000 	cmp	r7, #0
    1b58:	e1a03127 	lsr	r3, r7, #2
    1b5c:	e1a0b000 	mov	fp, r0
    1b60:	e1a09001 	mov	r9, r1
    1b64:	e58d301c 	str	r3, [sp, #28]
    1b68:	e1a05006 	mov	r5, r6
    1b6c:	0a000008 	beq	1b94 <population_table_initialise+0x64>
    1b70:	e1a00007 	mov	r0, r7
    1b74:	fa000cc1 	blx	4e80 <spin1_malloc>
    1b78:	e3500000 	cmp	r0, #0
    1b7c:	e1a04000 	mov	r4, r0
    1b80:	e5860004 	str	r0, [r6, #4]
    1b84:	03a00002 	moveq	r0, #2
    1b88:	059f11bc 	ldreq	r1, [pc, #444]	; 1d4c <population_table_initialise+0x21c>
    1b8c:	059f21bc 	ldreq	r2, [pc, #444]	; 1d50 <population_table_initialise+0x220>
    1b90:	0a00000b 	beq	1bc4 <population_table_initialise+0x94>
    1b94:	e59b6004 	ldr	r6, [fp, #4]
    1b98:	e1b06106 	lsls	r6, r6, #2
    1b9c:	0a00000b 	beq	1bd0 <population_table_initialise+0xa0>
    1ba0:	e1a00006 	mov	r0, r6
    1ba4:	fa000cb5 	blx	4e80 <spin1_malloc>
    1ba8:	e3500000 	cmp	r0, #0
    1bac:	e1a04000 	mov	r4, r0
    1bb0:	e5850008 	str	r0, [r5, #8]
    1bb4:	1a000005 	bne	1bd0 <population_table_initialise+0xa0>
    1bb8:	e59f118c 	ldr	r1, [pc, #396]	; 1d4c <population_table_initialise+0x21c>
    1bbc:	e59f2190 	ldr	r2, [pc, #400]	; 1d54 <population_table_initialise+0x224>
    1bc0:	e3a00002 	mov	r0, #2
    1bc4:	fa0009ea 	blx	4374 <io_printf>
    1bc8:	e1a00004 	mov	r0, r4
    1bcc:	ea00005b 	b	1d40 <population_table_initialise+0x210>
    1bd0:	e5950004 	ldr	r0, [r5, #4]
    1bd4:	e28b1008 	add	r1, fp, #8
    1bd8:	e1a02007 	mov	r2, r7
    1bdc:	fa000c5c 	blx	4d54 <spin1_memcpy>
    1be0:	e59d301c 	ldr	r3, [sp, #28]
    1be4:	e5950008 	ldr	r0, [r5, #8]
    1be8:	e2831002 	add	r1, r3, #2
    1bec:	e08b1101 	add	r1, fp, r1, lsl #2
    1bf0:	e1a02006 	mov	r2, r6
    1bf4:	fa000c56 	blx	4d54 <spin1_memcpy>
    1bf8:	e3a00002 	mov	r0, #2
    1bfc:	e59f1154 	ldr	r1, [pc, #340]	; 1d58 <population_table_initialise+0x228>
    1c00:	e59f2154 	ldr	r2, [pc, #340]	; 1d5c <population_table_initialise+0x22c>
    1c04:	e1a03009 	mov	r3, r9
    1c08:	fa0009d9 	blx	4374 <io_printf>
    1c0c:	e3a00002 	mov	r0, #2
    1c10:	e59f1140 	ldr	r1, [pc, #320]	; 1d58 <population_table_initialise+0x228>
    1c14:	e59f2144 	ldr	r2, [pc, #324]	; 1d60 <population_table_initialise+0x230>
    1c18:	e1a03008 	mov	r3, r8
    1c1c:	fa0009d4 	blx	4374 <io_printf>
    1c20:	e59f313c 	ldr	r3, [pc, #316]	; 1d64 <population_table_initialise+0x234>
    1c24:	e58a3000 	str	r3, [sl]
    1c28:	e3a00002 	mov	r0, #2
    1c2c:	e59f1118 	ldr	r1, [pc, #280]	; 1d4c <population_table_initialise+0x21c>
    1c30:	e59f2130 	ldr	r2, [pc, #304]	; 1d68 <population_table_initialise+0x238>
    1c34:	e585900c 	str	r9, [r5, #12]
    1c38:	e5858010 	str	r8, [r5, #16]
    1c3c:	fa0009cc 	blx	4374 <io_printf>
    1c40:	e3a00002 	mov	r0, #2
    1c44:	e59f1100 	ldr	r1, [pc, #256]	; 1d4c <population_table_initialise+0x21c>
    1c48:	e59f211c 	ldr	r2, [pc, #284]	; 1d6c <population_table_initialise+0x23c>
    1c4c:	fa0009c8 	blx	4374 <io_printf>
    1c50:	e3a0a000 	mov	sl, #0
    1c54:	e5953000 	ldr	r3, [r5]
    1c58:	e15a0003 	cmp	sl, r3
    1c5c:	2a000032 	bcs	1d2c <population_table_initialise+0x1fc>
    1c60:	e59f20e0 	ldr	r2, [pc, #224]	; 1d48 <population_table_initialise+0x218>
    1c64:	e3a0300c 	mov	r3, #12
    1c68:	e003039a 	mul	r3, sl, r3
    1c6c:	e5921004 	ldr	r1, [r2, #4]
    1c70:	e0812003 	add	r2, r1, r3
    1c74:	e1d260b8 	ldrh	r6, [r2, #8]
    1c78:	e7917003 	ldr	r7, [r1, r3]
    1c7c:	e5928004 	ldr	r8, [r2, #4]
    1c80:	e1d290ba 	ldrh	r9, [r2, #10]
    1c84:	e1a04006 	mov	r4, r6
    1c88:	e0863009 	add	r3, r6, r9
    1c8c:	e1540003 	cmp	r4, r3
    1c90:	aa000023 	bge	1d24 <population_table_initialise+0x1f4>
    1c94:	e5953008 	ldr	r3, [r5, #8]
    1c98:	e59f10a8 	ldr	r1, [pc, #168]	; 1d48 <population_table_initialise+0x218>
    1c9c:	e7932104 	ldr	r2, [r3, r4, lsl #2]
    1ca0:	e3520000 	cmp	r2, #0
    1ca4:	e3c23102 	bic	r3, r2, #-2147483648	; 0x80000000
    1ca8:	ba00000e 	blt	1ce8 <population_table_initialise+0x1b8>
    1cac:	e3c330ff 	bic	r3, r3, #255	; 0xff
    1cb0:	e1a03223 	lsr	r3, r3, #4
    1cb4:	e58d300c 	str	r3, [sp, #12]
    1cb8:	e88d0190 	stm	sp, {r4, r7, r8}
    1cbc:	e591100c 	ldr	r1, [r1, #12]
    1cc0:	e20220ff 	and	r2, r2, #255	; 0xff
    1cc4:	e0813003 	add	r3, r1, r3
    1cc8:	e58d3010 	str	r3, [sp, #16]
    1ccc:	e58d2014 	str	r2, [sp, #20]
    1cd0:	e3a00002 	mov	r0, #2
    1cd4:	e59f1094 	ldr	r1, [pc, #148]	; 1d70 <population_table_initialise+0x240>
    1cd8:	e59f2094 	ldr	r2, [pc, #148]	; 1d74 <population_table_initialise+0x244>
    1cdc:	e1a0300a 	mov	r3, sl
    1ce0:	fa0009a3 	blx	4374 <io_printf>
    1ce4:	ea00000a 	b	1d14 <population_table_initialise+0x1e4>
    1ce8:	e1a03423 	lsr	r3, r3, #8
    1cec:	e58d300c 	str	r3, [sp, #12]
    1cf0:	e88d0190 	stm	sp, {r4, r7, r8}
    1cf4:	e5912010 	ldr	r2, [r1, #16]
    1cf8:	e3a00002 	mov	r0, #2
    1cfc:	e0823003 	add	r3, r2, r3
    1d00:	e58d3010 	str	r3, [sp, #16]
    1d04:	e59f106c 	ldr	r1, [pc, #108]	; 1d78 <population_table_initialise+0x248>
    1d08:	e59f206c 	ldr	r2, [pc, #108]	; 1d7c <population_table_initialise+0x24c>
    1d0c:	e1a0300a 	mov	r3, sl
    1d10:	fa000997 	blx	4374 <io_printf>
    1d14:	e2844001 	add	r4, r4, #1
    1d18:	e1a04804 	lsl	r4, r4, #16
    1d1c:	e1a04824 	lsr	r4, r4, #16
    1d20:	eaffffd8 	b	1c88 <population_table_initialise+0x158>
    1d24:	e28aa001 	add	sl, sl, #1
    1d28:	eaffffc9 	b	1c54 <population_table_initialise+0x124>
    1d2c:	e3a00002 	mov	r0, #2
    1d30:	e59f1014 	ldr	r1, [pc, #20]	; 1d4c <population_table_initialise+0x21c>
    1d34:	e59f2044 	ldr	r2, [pc, #68]	; 1d80 <population_table_initialise+0x250>
    1d38:	fa00098d 	blx	4374 <io_printf>
    1d3c:	e3a00001 	mov	r0, #1
    1d40:	e28dd024 	add	sp, sp, #36	; 0x24
    1d44:	e8bd8ff0 	pop	{r4, r5, r6, r7, r8, r9, sl, fp, pc}
    1d48:	00400118 	.word	0x00400118
    1d4c:	0000551f 	.word	0x0000551f
    1d50:	00001c96 	.word	0x00001c96
    1d54:	00001c97 	.word	0x00001c97
    1d58:	00005500 	.word	0x00005500
    1d5c:	00001c9a 	.word	0x00001c9a
    1d60:	00001c9b 	.word	0x00001c9b
    1d64:	00000102 	.word	0x00000102
    1d68:	00001c8d 	.word	0x00001c8d
    1d6c:	00001c8e 	.word	0x00001c8e
    1d70:	0000545e 	.word	0x0000545e
    1d74:	00001c8f 	.word	0x00001c8f
    1d78:	0000547f 	.word	0x0000547f
    1d7c:	00001c90 	.word	0x00001c90
    1d80:	00001c91 	.word	0x00001c91

00001d84 <population_table_get_next_address>:
    1d84:	e92d41f0 	push	{r4, r5, r6, r7, r8, lr}
    1d88:	e59fe0bc 	ldr	lr, [pc, #188]	; 1e4c <population_table_get_next_address+0xc8>
    1d8c:	e1de21b4 	ldrh	r2, [lr, #20]
    1d90:	e3520000 	cmp	r2, #0
    1d94:	0a00002a 	beq	1e44 <population_table_get_next_address+0xc0>
    1d98:	e59e5018 	ldr	r5, [lr, #24]
    1d9c:	e59e6010 	ldr	r6, [lr, #16]
    1da0:	e1a05105 	lsl	r5, r5, #2
    1da4:	e59e7008 	ldr	r7, [lr, #8]
    1da8:	e1de41b6 	ldrh	r4, [lr, #22]
    1dac:	e59e800c 	ldr	r8, [lr, #12]
    1db0:	e0866005 	add	r6, r6, r5
    1db4:	e7973104 	ldr	r3, [r7, r4, lsl #2]
    1db8:	e3530000 	cmp	r3, #0
    1dbc:	aa000005 	bge	1dd8 <population_table_get_next_address+0x54>
    1dc0:	e3c33102 	bic	r3, r3, #-2147483648	; 0x80000000
    1dc4:	e0863423 	add	r3, r6, r3, lsr #8
    1dc8:	e5803000 	str	r3, [r0]
    1dcc:	e3a03000 	mov	r3, #0
    1dd0:	e5813000 	str	r3, [r1]
    1dd4:	ea000009 	b	1e00 <population_table_get_next_address+0x7c>
    1dd8:	e213c0ff 	ands	ip, r3, #255	; 0xff
    1ddc:	0a000008 	beq	1e04 <population_table_get_next_address+0x80>
    1de0:	e3c33102 	bic	r3, r3, #-2147483648	; 0x80000000
    1de4:	e3c330ff 	bic	r3, r3, #255	; 0xff
    1de8:	e28cc003 	add	ip, ip, #3
    1dec:	e0883223 	add	r3, r8, r3, lsr #4
    1df0:	e0233c95 	mla	r3, r5, ip, r3
    1df4:	e1a0c10c 	lsl	ip, ip, #2
    1df8:	e5803000 	str	r3, [r0]
    1dfc:	e581c000 	str	ip, [r1]
    1e00:	e3a0c001 	mov	ip, #1
    1e04:	e2844001 	add	r4, r4, #1
    1e08:	e2422001 	sub	r2, r2, #1
    1e0c:	e1a04804 	lsl	r4, r4, #16
    1e10:	e1a02802 	lsl	r2, r2, #16
    1e14:	e35c0000 	cmp	ip, #0
    1e18:	e1a04824 	lsr	r4, r4, #16
    1e1c:	e1a02822 	lsr	r2, r2, #16
    1e20:	11ce41b6 	strhne	r4, [lr, #22]
    1e24:	11ce21b4 	strhne	r2, [lr, #20]
    1e28:	1a000003 	bne	1e3c <population_table_get_next_address+0xb8>
    1e2c:	e3520000 	cmp	r2, #0
    1e30:	1affffdf 	bne	1db4 <population_table_get_next_address+0x30>
    1e34:	e1ce41b6 	strh	r4, [lr, #22]
    1e38:	e1cec1b4 	strh	ip, [lr, #20]
    1e3c:	e1a0000c 	mov	r0, ip
    1e40:	e8bd81f0 	pop	{r4, r5, r6, r7, r8, pc}
    1e44:	e1a00002 	mov	r0, r2
    1e48:	e8bd81f0 	pop	{r4, r5, r6, r7, r8, pc}
    1e4c:	00400118 	.word	0x00400118

00001e50 <population_table_get_first_address>:
    1e50:	e59f3078 	ldr	r3, [pc, #120]	; 1ed0 <population_table_get_first_address+0x80>
    1e54:	e92d47f0 	push	{r4, r5, r6, r7, r8, r9, sl, lr}
    1e58:	e8930140 	ldm	r3, {r6, r8}
    1e5c:	e3a07000 	mov	r7, #0
    1e60:	e1570006 	cmp	r7, r6
    1e64:	2a000017 	bcs	1ec8 <population_table_get_first_address+0x78>
    1e68:	e086c007 	add	ip, r6, r7
    1e6c:	e1a0c0ac 	lsr	ip, ip, #1
    1e70:	e3a0400c 	mov	r4, #12
    1e74:	e004049c 	mul	r4, ip, r4
    1e78:	e0885004 	add	r5, r8, r4
    1e7c:	e595e004 	ldr	lr, [r5, #4]
    1e80:	e7984004 	ldr	r4, [r8, r4]
    1e84:	e00ea000 	and	sl, lr, r0
    1e88:	e15a0004 	cmp	sl, r4
    1e8c:	e1d590b8 	ldrh	r9, [r5, #8]
    1e90:	e1d550ba 	ldrh	r5, [r5, #10]
    1e94:	1a000007 	bne	1eb8 <population_table_get_first_address+0x68>
    1e98:	e1c0e00e 	bic	lr, r0, lr
    1e9c:	e583e018 	str	lr, [r3, #24]
    1ea0:	e1c391b6 	strh	r9, [r3, #22]
    1ea4:	e1c351b4 	strh	r5, [r3, #20]
    1ea8:	e1a00001 	mov	r0, r1
    1eac:	e8bd47f0 	pop	{r4, r5, r6, r7, r8, r9, sl, lr}
    1eb0:	e1a01002 	mov	r1, r2
    1eb4:	eaffffb2 	b	1d84 <population_table_get_next_address>
    1eb8:	e1540000 	cmp	r4, r0
    1ebc:	328c7001 	addcc	r7, ip, #1
    1ec0:	21a0600c 	movcs	r6, ip
    1ec4:	eaffffe5 	b	1e60 <population_table_get_first_address+0x10>
    1ec8:	e3a00000 	mov	r0, #0
    1ecc:	e8bd87f0 	pop	{r4, r5, r6, r7, r8, r9, sl, pc}
    1ed0:	00400118 	.word	0x00400118

00001ed4 <neuron_model_set_global_neuron_params>:
    1ed4:	e12fff1e 	bx	lr

00001ed8 <neuron_model_state_update>:
    1ed8:	e92d4070 	push	{r4, r5, r6, lr}
    1edc:	e59dc014 	ldr	ip, [sp, #20]
    1ee0:	e59de010 	ldr	lr, [sp, #16]
    1ee4:	e59c4014 	ldr	r4, [ip, #20]
    1ee8:	e3540000 	cmp	r4, #0
    1eec:	d3a05000 	movle	r5, #0
    1ef0:	d1a04005 	movle	r4, r5
    1ef4:	ca00001e 	bgt	1f74 <neuron_model_state_update+0x9c>
    1ef8:	e1540000 	cmp	r4, r0
    1efc:	b7916104 	ldrlt	r6, [r1, r4, lsl #2]
    1f00:	b2844001 	addlt	r4, r4, #1
    1f04:	b0855006 	addlt	r5, r5, r6
    1f08:	bafffffa 	blt	1ef8 <neuron_model_state_update+0x20>
    1f0c:	e3a01000 	mov	r1, #0
    1f10:	e1a00001 	mov	r0, r1
    1f14:	e1510002 	cmp	r1, r2
    1f18:	b7934101 	ldrlt	r4, [r3, r1, lsl #2]
    1f1c:	b2811001 	addlt	r1, r1, #1
    1f20:	b0800004 	addlt	r0, r0, r4
    1f24:	bafffffa 	blt	1f14 <neuron_model_state_update+0x3c>
    1f28:	e59c3010 	ldr	r3, [ip, #16]
    1f2c:	e08e3003 	add	r3, lr, r3
    1f30:	e0833005 	add	r3, r3, r5
    1f34:	e0432000 	sub	r2, r3, r0
    1f38:	e59c3008 	ldr	r3, [ip, #8]
    1f3c:	e0c10392 	smull	r0, r1, r2, r3
    1f40:	e59c2004 	ldr	r2, [ip, #4]
    1f44:	e1a03881 	lsl	r3, r1, #17
    1f48:	e18337a0 	orr	r3, r3, r0, lsr #15
    1f4c:	e59c1000 	ldr	r1, [ip]
    1f50:	e0833002 	add	r3, r3, r2
    1f54:	e59c200c 	ldr	r2, [ip, #12]
    1f58:	e0431001 	sub	r1, r3, r1
    1f5c:	e0c54291 	smull	r4, r5, r1, r2
    1f60:	e1a02885 	lsl	r2, r5, #17
    1f64:	e18227a4 	orr	r2, r2, r4, lsr #15
    1f68:	e0433002 	sub	r3, r3, r2
    1f6c:	e58c3000 	str	r3, [ip]
    1f70:	ea000001 	b	1f7c <neuron_model_state_update+0xa4>
    1f74:	e2444001 	sub	r4, r4, #1
    1f78:	e58c4014 	str	r4, [ip, #20]
    1f7c:	e59c0000 	ldr	r0, [ip]
    1f80:	e8bd8070 	pop	{r4, r5, r6, pc}

00001f84 <neuron_model_has_spiked>:
    1f84:	e5903018 	ldr	r3, [r0, #24]
    1f88:	e5803000 	str	r3, [r0]
    1f8c:	e590301c 	ldr	r3, [r0, #28]
    1f90:	e5803014 	str	r3, [r0, #20]
    1f94:	e12fff1e 	bx	lr

00001f98 <neuron_model_get_membrane_voltage>:
    1f98:	e5900000 	ldr	r0, [r0]
    1f9c:	e12fff1e 	bx	lr

00001fa0 <neuron_model_print_state_variables>:
    1fa0:	e12fff1e 	bx	lr

00001fa4 <neuron_model_print_parameters>:
    1fa4:	e12fff1e 	bx	lr

00001fa8 <synapse_dynamics_print_plastic_synapses>:
    1fa8:	e12fff1e 	bx	lr

00001fac <synapse_dynamics_initialise>:
    1fac:	e92d41f0 	push	{r4, r5, r6, r7, r8, lr}
    1fb0:	e1a07000 	mov	r7, r0
    1fb4:	e1a04001 	mov	r4, r1
    1fb8:	e1a05002 	mov	r5, r2
    1fbc:	e1a06003 	mov	r6, r3
    1fc0:	eb00014d 	bl	24fc <timing_initialise>
    1fc4:	e3570000 	cmp	r7, #0
    1fc8:	1a000001 	bne	1fd4 <synapse_dynamics_initialise+0x28>
    1fcc:	e3a00000 	mov	r0, #0
    1fd0:	e8bd81f0 	pop	{r4, r5, r6, r7, r8, pc}
    1fd4:	e1a02006 	mov	r2, r6
    1fd8:	e1a01005 	mov	r1, r5
    1fdc:	eb000120 	bl	2464 <weight_initialise>
    1fe0:	e2506000 	subs	r6, r0, #0
    1fe4:	0afffff8 	beq	1fcc <synapse_dynamics_initialise+0x20>
    1fe8:	e3a07064 	mov	r7, #100	; 0x64
    1fec:	e0070794 	mul	r7, r4, r7
    1ff0:	e1a00007 	mov	r0, r7
    1ff4:	fa000ba1 	blx	4e80 <spin1_malloc>
    1ff8:	e2508000 	subs	r8, r0, #0
    1ffc:	11a03008 	movne	r3, r8
    2000:	10887007 	addne	r7, r8, r7
    2004:	1a000004 	bne	201c <P2P_TABLE_SIZE+0x1c>
    2008:	e3a00002 	mov	r0, #2
    200c:	e59f10bc 	ldr	r1, [pc, #188]	; 20d0 <P2P_TABLE_SIZE+0xd0>
    2010:	e59f20bc 	ldr	r2, [pc, #188]	; 20d4 <P2P_TABLE_SIZE+0xd4>
    2014:	fa0008d6 	blx	4374 <io_printf>
    2018:	ea000005 	b	2034 <P2P_TABLE_SIZE+0x34>
    201c:	e1530007 	cmp	r3, r7
    2020:	13a02000 	movne	r2, #0
    2024:	15832004 	strne	r2, [r3, #4]
    2028:	11c324b4 	strhne	r2, [r3, #68]	; 0x44
    202c:	14832064 	strne	r2, [r3], #100	; 0x64
    2030:	1afffff9 	bne	201c <P2P_TABLE_SIZE+0x1c>
    2034:	e59f309c 	ldr	r3, [pc, #156]	; 20d8 <P2P_TABLE_SIZE+0xd8>
    2038:	e3580000 	cmp	r8, #0
    203c:	e5838000 	str	r8, [r3]
    2040:	0affffe1 	beq	1fcc <synapse_dynamics_initialise+0x20>
    2044:	e3540001 	cmp	r4, #1
    2048:	0a000007 	beq	206c <P2P_TABLE_SIZE+0x6c>
    204c:	e2443001 	sub	r3, r4, #1
    2050:	e1130004 	tst	r3, r4
    2054:	116f4f14 	clzne	r4, r4
    2058:	13a03001 	movne	r3, #1
    205c:	12644020 	rsbne	r4, r4, #32
    2060:	11a04413 	lslne	r4, r3, r4
    2064:	e16f4f14 	clz	r4, r4
    2068:	e264401f 	rsb	r4, r4, #31
    206c:	e2453001 	sub	r3, r5, #1
    2070:	e1130005 	tst	r3, r5
    2074:	116f5f15 	clzne	r5, r5
    2078:	13a03001 	movne	r3, #1
    207c:	12655020 	rsbne	r5, r5, #32
    2080:	11a05513 	lslne	r5, r3, r5
    2084:	e16f5f15 	clz	r5, r5
    2088:	e265501f 	rsb	r5, r5, #31
    208c:	e0851004 	add	r1, r5, r4
    2090:	e3a03001 	mov	r3, #1
    2094:	e1a00113 	lsl	r0, r3, r1
    2098:	e59f203c 	ldr	r2, [pc, #60]	; 20dc <P2P_TABLE_SIZE+0xdc>
    209c:	e2400001 	sub	r0, r0, #1
    20a0:	e9820011 	stmib	r2, {r0, r4}
    20a4:	e1a05513 	lsl	r5, r3, r5
    20a8:	e1a04413 	lsl	r4, r3, r4
    20ac:	e5821000 	str	r1, [r2]
    20b0:	e2444001 	sub	r4, r4, #1
    20b4:	e2811004 	add	r1, r1, #4
    20b8:	e2455001 	sub	r5, r5, #1
    20bc:	e582400c 	str	r4, [r2, #12]
    20c0:	e5821010 	str	r1, [r2, #16]
    20c4:	e5825014 	str	r5, [r2, #20]
    20c8:	e1a00006 	mov	r0, r6
    20cc:	e8bd81f0 	pop	{r4, r5, r6, r7, r8, pc}
    20d0:	0000551f 	.word	0x0000551f
    20d4:	00001bdf 	.word	0x00001bdf
    20d8:	0040068c 	.word	0x0040068c
    20dc:	00400134 	.word	0x00400134

000020e0 <synapse_dynamics_process_plastic_synapses>:
    20e0:	e92d4ff0 	push	{r4, r5, r6, r7, r8, r9, sl, fp, lr}
    20e4:	e24dd02c 	sub	sp, sp, #44	; 0x2c
    20e8:	e58d2010 	str	r2, [sp, #16]
    20ec:	e5912000 	ldr	r2, [r1]
    20f0:	e5914004 	ldr	r4, [r1, #4]
    20f4:	e2822002 	add	r2, r2, #2
    20f8:	e0812102 	add	r2, r1, r2, lsl #2
    20fc:	e59f126c 	ldr	r1, [pc, #620]	; 2370 <synapse_dynamics_process_plastic_synapses+0x290>
    2100:	e58d2004 	str	r2, [sp, #4]
    2104:	e5912018 	ldr	r2, [r1, #24]
    2108:	e5905004 	ldr	r5, [r0, #4]
    210c:	e0842002 	add	r2, r4, r2
    2110:	e5812018 	str	r2, [r1, #24]
    2114:	e1d010b0 	ldrh	r1, [r0]
    2118:	e0652003 	rsb	r2, r5, r3
    211c:	e1a01801 	lsl	r1, r1, #16
    2120:	e35200ff 	cmp	r2, #255	; 0xff
    2124:	e1a01841 	asr	r1, r1, #16
    2128:	e58d100c 	str	r1, [sp, #12]
    212c:	959f1240 	ldrls	r1, [pc, #576]	; 2374 <synapse_dynamics_process_plastic_synapses+0x294>
    2130:	91a02082 	lslls	r2, r2, #1
    2134:	919220f1 	ldrshls	r2, [r2, r1]
    2138:	e280c008 	add	ip, r0, #8
    213c:	e5803004 	str	r3, [r0, #4]
    2140:	83a02000 	movhi	r2, #0
    2144:	e59d100c 	ldr	r1, [sp, #12]
    2148:	e1620281 	smulbb	r2, r1, r2
    214c:	e1a025c2 	asr	r2, r2, #11
    2150:	e2822b02 	add	r2, r2, #2048	; 0x800
    2154:	e1a0b00c 	mov	fp, ip
    2158:	e1c020b0 	strh	r2, [r0]
    215c:	e3540000 	cmp	r4, #0
    2160:	0a00007f 	beq	2364 <synapse_dynamics_process_plastic_synapses+0x284>
    2164:	e59d1004 	ldr	r1, [sp, #4]
    2168:	e0d120b2 	ldrh	r2, [r1], #2
    216c:	e58d1004 	str	r1, [sp, #4]
    2170:	e59f11f8 	ldr	r1, [pc, #504]	; 2370 <synapse_dynamics_process_plastic_synapses+0x290>
    2174:	e591c004 	ldr	ip, [r1, #4]
    2178:	e591e008 	ldr	lr, [r1, #8]
    217c:	e002c00c 	and	ip, r2, ip
    2180:	e58dc01c 	str	ip, [sp, #28]
    2184:	e1dbc0b0 	ldrh	ip, [fp]
    2188:	e58dc020 	str	ip, [sp, #32]
    218c:	e591c014 	ldr	ip, [r1, #20]
    2190:	e5910000 	ldr	r0, [r1]
    2194:	e00cce32 	and	ip, ip, r2, lsr lr
    2198:	e591100c 	ldr	r1, [r1, #12]
    219c:	e58dc014 	str	ip, [sp, #20]
    21a0:	e59fc1d0 	ldr	ip, [pc, #464]	; 2378 <synapse_dynamics_process_plastic_synapses+0x298>
    21a4:	e58d0008 	str	r0, [sp, #8]
    21a8:	e1a00032 	lsr	r0, r2, r0
    21ac:	e0022001 	and	r2, r2, r1
    21b0:	e3a01064 	mov	r1, #100	; 0x64
    21b4:	e59cc000 	ldr	ip, [ip]
    21b8:	e0020291 	mul	r2, r1, r2
    21bc:	e59de014 	ldr	lr, [sp, #20]
    21c0:	e59f11b4 	ldr	r1, [pc, #436]	; 237c <synapse_dynamics_process_plastic_synapses+0x29c>
    21c4:	e08c720e 	add	r7, ip, lr, lsl #4
    21c8:	e58dc018 	str	ip, [sp, #24]
    21cc:	e591c000 	ldr	ip, [r1]
    21d0:	e200000f 	and	r0, r0, #15
    21d4:	e79c6002 	ldr	r6, [ip, r2]
    21d8:	e08c1002 	add	r1, ip, r2
    21dc:	e2866001 	add	r6, r6, #1
    21e0:	e081c106 	add	ip, r1, r6, lsl #2
    21e4:	e1550000 	cmp	r5, r0
    21e8:	e060e003 	rsb	lr, r0, r3
    21ec:	e28cc004 	add	ip, ip, #4
    21f0:	e58de024 	str	lr, [sp, #36]	; 0x24
    21f4:	20609005 	rsbcs	r9, r0, r5
    21f8:	33a09000 	movcc	r9, #0
    21fc:	e1a0e00c 	mov	lr, ip
    2200:	e51c2004 	ldr	r2, [ip, #-4]
    2204:	e59da024 	ldr	sl, [sp, #36]	; 0x24
    2208:	e24c8004 	sub	r8, ip, #4
    220c:	e152000a 	cmp	r2, sl
    2210:	81a0e008 	movhi	lr, r8
    2214:	e1520009 	cmp	r2, r9
    2218:	8a000009 	bhi	2244 <synapse_dynamics_process_plastic_synapses+0x164>
    221c:	e06ce00e 	rsb	lr, ip, lr
    2220:	e0811086 	add	r1, r1, r6, lsl #1
    2224:	e1a0e14e 	asr	lr, lr, #2
    2228:	e1a0608e 	lsl	r6, lr, #1
    222c:	e2811044 	add	r1, r1, #68	; 0x44
    2230:	e0661001 	rsb	r1, r6, r1
    2234:	e3a06000 	mov	r6, #0
    2238:	e17180b2 	ldrh	r8, [r1, #-2]!
    223c:	e1a09006 	mov	r9, r6
    2240:	ea000004 	b	2258 <synapse_dynamics_process_plastic_synapses+0x178>
    2244:	e281a004 	add	sl, r1, #4
    2248:	e158000a 	cmp	r8, sl
    224c:	0afffff2 	beq	221c <synapse_dynamics_process_plastic_synapses+0x13c>
    2250:	e1a0c008 	mov	ip, r8
    2254:	eaffffe9 	b	2200 <synapse_dynamics_process_plastic_synapses+0x120>
    2258:	e156000e 	cmp	r6, lr
    225c:	0a00000d 	beq	2298 <synapse_dynamics_process_plastic_synapses+0x1b8>
    2260:	e79c2106 	ldr	r2, [ip, r6, lsl #2]
    2264:	e0802002 	add	r2, r0, r2
    2268:	e0658002 	rsb	r8, r5, r2
    226c:	e35800ff 	cmp	r8, #255	; 0xff
    2270:	959fa0fc 	ldrls	sl, [pc, #252]	; 2374 <synapse_dynamics_process_plastic_synapses+0x294>
    2274:	91a08088 	lslls	r8, r8, #1
    2278:	919880fa 	ldrshls	r8, [r8, sl]
    227c:	83a08000 	movhi	r8, #0
    2280:	e59da00c 	ldr	sl, [sp, #12]
    2284:	e168088a 	smulbb	r8, sl, r8
    2288:	e08995c8 	add	r9, r9, r8, asr #11
    228c:	e2866001 	add	r6, r6, #1
    2290:	e1f180b2 	ldrh	r8, [r1, #2]!
    2294:	eaffffef 	b	2258 <synapse_dynamics_process_plastic_synapses+0x178>
    2298:	e0622003 	rsb	r2, r2, r3
    229c:	e35200ff 	cmp	r2, #255	; 0xff
    22a0:	959f10cc 	ldrls	r1, [pc, #204]	; 2374 <synapse_dynamics_process_plastic_synapses+0x294>
    22a4:	91a02082 	lslls	r2, r2, #1
    22a8:	e1a08808 	lsl	r8, r8, #16
    22ac:	919220f1 	ldrshls	r2, [r2, r1]
    22b0:	83a02000 	movhi	r2, #0
    22b4:	e1a08848 	asr	r8, r8, #16
    22b8:	e1680288 	smulbb	r8, r8, r2
    22bc:	e59f20bc 	ldr	r2, [pc, #188]	; 2380 <synapse_dynamics_process_plastic_synapses+0x2a0>
    22c0:	e5922000 	ldr	r2, [r2]
    22c4:	e06285c8 	rsb	r8, r2, r8, asr #11
    22c8:	e0899008 	add	r9, r9, r8
    22cc:	e5978008 	ldr	r8, [r7, #8]
    22d0:	e1690889 	smulbb	r9, r9, r8
    22d4:	e3a02000 	mov	r2, #0
    22d8:	e597100c 	ldr	r1, [r7, #12]
    22dc:	e1620182 	smulbb	r2, r2, r1
    22e0:	e59d1020 	ldr	r1, [sp, #32]
    22e4:	e59dc014 	ldr	ip, [sp, #20]
    22e8:	e08195c9 	add	r9, r1, r9, asr #11
    22ec:	e59d1018 	ldr	r1, [sp, #24]
    22f0:	e04925c2 	sub	r2, r9, r2, asr #11
    22f4:	e791120c 	ldr	r1, [r1, ip, lsl #4]
    22f8:	e0800003 	add	r0, r0, r3
    22fc:	e1520001 	cmp	r2, r1
    2300:	b1a02001 	movlt	r2, r1
    2304:	e5971004 	ldr	r1, [r7, #4]
    2308:	e59dc008 	ldr	ip, [sp, #8]
    230c:	e1520001 	cmp	r2, r1
    2310:	a1a02001 	movge	r2, r1
    2314:	e59d101c 	ldr	r1, [sp, #28]
    2318:	e200000f 	and	r0, r0, #15
    231c:	e1810c10 	orr	r0, r1, r0, lsl ip
    2320:	e59d1010 	ldr	r1, [sp, #16]
    2324:	e1a00080 	lsl	r0, r0, #1
    2328:	e19110b0 	ldrh	r1, [r1, r0]
    232c:	e1a02802 	lsl	r2, r2, #16
    2330:	e1a02822 	lsr	r2, r2, #16
    2334:	e0811002 	add	r1, r1, r2
    2338:	e3110801 	tst	r1, #65536	; 0x10000
    233c:	159fc02c 	ldrne	ip, [pc, #44]	; 2370 <synapse_dynamics_process_plastic_synapses+0x290>
    2340:	e2444001 	sub	r4, r4, #1
    2344:	159c101c 	ldrne	r1, [ip, #28]
    2348:	12811001 	addne	r1, r1, #1
    234c:	158c101c 	strne	r1, [ip, #28]
    2350:	e59dc010 	ldr	ip, [sp, #16]
    2354:	159f1028 	ldrne	r1, [pc, #40]	; 2384 <synapse_dynamics_process_plastic_synapses+0x2a4>
    2358:	e18c10b0 	strh	r1, [ip, r0]
    235c:	e0cb20b2 	strh	r2, [fp], #2
    2360:	eaffff7d 	b	215c <synapse_dynamics_process_plastic_synapses+0x7c>
    2364:	e3a00001 	mov	r0, #1
    2368:	e28dd02c 	add	sp, sp, #44	; 0x2c
    236c:	e8bd8ff0 	pop	{r4, r5, r6, r7, r8, r9, sl, fp, pc}
    2370:	00400134 	.word	0x00400134
    2374:	00400694 	.word	0x00400694
    2378:	00400690 	.word	0x00400690
    237c:	0040068c 	.word	0x0040068c
    2380:	00400894 	.word	0x00400894
    2384:	0000ffff 	.word	0x0000ffff

00002388 <synapse_dynamics_process_post_synaptic_event>:
    2388:	e3a03064 	mov	r3, #100	; 0x64
    238c:	e0010193 	mul	r1, r3, r1
    2390:	e59f309c 	ldr	r3, [pc, #156]	; 2434 <synapse_dynamics_process_post_synaptic_event+0xac>
    2394:	e92d40f0 	push	{r4, r5, r6, r7, lr}
    2398:	e593e000 	ldr	lr, [r3]
    239c:	e79ec001 	ldr	ip, [lr, r1]
    23a0:	e08e2001 	add	r2, lr, r1
    23a4:	e082510c 	add	r5, r2, ip, lsl #2
    23a8:	e5956004 	ldr	r6, [r5, #4]
    23ac:	e082408c 	add	r4, r2, ip, lsl #1
    23b0:	e0666000 	rsb	r6, r6, r0
    23b4:	e35600ff 	cmp	r6, #255	; 0xff
    23b8:	959f7078 	ldrls	r7, [pc, #120]	; 2438 <synapse_dynamics_process_post_synaptic_event+0xb0>
    23bc:	91a06086 	lslls	r6, r6, #1
    23c0:	e1d434f4 	ldrsh	r3, [r4, #68]	; 0x44
    23c4:	919660f7 	ldrshls	r6, [r6, r7]
    23c8:	83a06000 	movhi	r6, #0
    23cc:	e1630683 	smulbb	r3, r3, r6
    23d0:	e1a035c3 	asr	r3, r3, #11
    23d4:	e2833b02 	add	r3, r3, #2048	; 0x800
    23d8:	e35c000e 	cmp	ip, #14
    23dc:	e1a03803 	lsl	r3, r3, #16
    23e0:	e1a03823 	lsr	r3, r3, #16
    23e4:	8282e008 	addhi	lr, r2, #8
    23e8:	81a0c002 	movhi	ip, r2
    23ec:	83a01002 	movhi	r1, #2
    23f0:	8a000004 	bhi	2408 <synapse_dynamics_process_post_synaptic_event+0x80>
    23f4:	e28cc001 	add	ip, ip, #1
    23f8:	e78ec001 	str	ip, [lr, r1]
    23fc:	e5850008 	str	r0, [r5, #8]
    2400:	e1c434b6 	strh	r3, [r4, #70]	; 0x46
    2404:	e8bd80f0 	pop	{r4, r5, r6, r7, pc}
    2408:	e5be4004 	ldr	r4, [lr, #4]!
    240c:	e7824101 	str	r4, [r2, r1, lsl #2]
    2410:	e2811001 	add	r1, r1, #1
    2414:	e1dc44b8 	ldrh	r4, [ip, #72]	; 0x48
    2418:	e3510010 	cmp	r1, #16
    241c:	e1cc44b6 	strh	r4, [ip, #70]	; 0x46
    2420:	e28cc002 	add	ip, ip, #2
    2424:	1afffff7 	bne	2408 <synapse_dynamics_process_post_synaptic_event+0x80>
    2428:	e5820040 	str	r0, [r2, #64]	; 0x40
    242c:	e1c236b2 	strh	r3, [r2, #98]	; 0x62
    2430:	e8bd80f0 	pop	{r4, r5, r6, r7, pc}
    2434:	0040068c 	.word	0x0040068c
    2438:	00400694 	.word	0x00400694

0000243c <synapse_dynamics_get_intrinsic_bias>:
    243c:	e3a00000 	mov	r0, #0
    2440:	e12fff1e 	bx	lr

00002444 <synapse_dynamics_get_plastic_pre_synaptic_events>:
    2444:	e59f3004 	ldr	r3, [pc, #4]	; 2450 <synapse_dynamics_get_plastic_pre_synaptic_events+0xc>
    2448:	e5930018 	ldr	r0, [r3, #24]
    244c:	e12fff1e 	bx	lr
    2450:	00400134 	.word	0x00400134

00002454 <synapse_dynamics_get_plastic_saturation_count>:
    2454:	e59f3004 	ldr	r3, [pc, #4]	; 2460 <synapse_dynamics_get_plastic_saturation_count+0xc>
    2458:	e593001c 	ldr	r0, [r3, #28]
    245c:	e12fff1e 	bx	lr
    2460:	00400134 	.word	0x00400134

00002464 <weight_initialise>:
    2464:	e92d40f8 	push	{r3, r4, r5, r6, r7, lr}
    2468:	e1a05201 	lsl	r5, r1, #4
    246c:	e1a06000 	mov	r6, r0
    2470:	e1a00005 	mov	r0, r5
    2474:	e1a07001 	mov	r7, r1
    2478:	fa000a80 	blx	4e80 <spin1_malloc>
    247c:	e59f306c 	ldr	r3, [pc, #108]	; 24f0 <weight_initialise+0x8c>
    2480:	e3500000 	cmp	r0, #0
    2484:	e5830000 	str	r0, [r3]
    2488:	e1a04000 	mov	r4, r0
    248c:	11a03006 	movne	r3, r6
    2490:	13a02000 	movne	r2, #0
    2494:	1a000005 	bne	24b0 <weight_initialise+0x4c>
    2498:	e3a00002 	mov	r0, #2
    249c:	e59f1050 	ldr	r1, [pc, #80]	; 24f4 <weight_initialise+0x90>
    24a0:	e59f2050 	ldr	r2, [pc, #80]	; 24f8 <weight_initialise+0x94>
    24a4:	fa0007b2 	blx	4374 <io_printf>
    24a8:	e1a00004 	mov	r0, r4
    24ac:	e8bd80f8 	pop	{r3, r4, r5, r6, r7, pc}
    24b0:	e1520007 	cmp	r2, r7
    24b4:	e2833010 	add	r3, r3, #16
    24b8:	e2800010 	add	r0, r0, #16
    24bc:	0a000009 	beq	24e8 <weight_initialise+0x84>
    24c0:	e5131010 	ldr	r1, [r3, #-16]
    24c4:	e5001010 	str	r1, [r0, #-16]
    24c8:	e513100c 	ldr	r1, [r3, #-12]
    24cc:	e500100c 	str	r1, [r0, #-12]
    24d0:	e5131008 	ldr	r1, [r3, #-8]
    24d4:	e5001008 	str	r1, [r0, #-8]
    24d8:	e5131004 	ldr	r1, [r3, #-4]
    24dc:	e5001004 	str	r1, [r0, #-4]
    24e0:	e2822001 	add	r2, r2, #1
    24e4:	eafffff1 	b	24b0 <weight_initialise+0x4c>
    24e8:	e0860005 	add	r0, r6, r5
    24ec:	e8bd80f8 	pop	{r3, r4, r5, r6, r7, pc}
    24f0:	00400690 	.word	0x00400690
    24f4:	0000551f 	.word	0x0000551f
    24f8:	00001c43 	.word	0x00001c43

000024fc <timing_initialise>:
    24fc:	e92d4038 	push	{r3, r4, r5, lr}
    2500:	e59f4054 	ldr	r4, [pc, #84]	; 255c <timing_initialise+0x60>
    2504:	e1a05000 	mov	r5, r0
    2508:	e1a01004 	mov	r1, r4
    250c:	e3a00002 	mov	r0, #2
    2510:	e59f2048 	ldr	r2, [pc, #72]	; 2560 <timing_initialise+0x64>
    2514:	fa000796 	blx	4374 <io_printf>
    2518:	e1a01004 	mov	r1, r4
    251c:	e3a00002 	mov	r0, #2
    2520:	e59f203c 	ldr	r2, [pc, #60]	; 2564 <timing_initialise+0x68>
    2524:	fa000792 	blx	4374 <io_printf>
    2528:	e1a01005 	mov	r1, r5
    252c:	e59f3034 	ldr	r3, [pc, #52]	; 2568 <timing_initialise+0x6c>
    2530:	e4912004 	ldr	r2, [r1], #4
    2534:	e5832000 	str	r2, [r3]
    2538:	e59f002c 	ldr	r0, [pc, #44]	; 256c <timing_initialise+0x70>
    253c:	e3a02c02 	mov	r2, #512	; 0x200
    2540:	fa000a03 	blx	4d54 <spin1_memcpy>
    2544:	e3a00002 	mov	r0, #2
    2548:	e1a01004 	mov	r1, r4
    254c:	e59f201c 	ldr	r2, [pc, #28]	; 2570 <timing_initialise+0x74>
    2550:	fa000787 	blx	4374 <io_printf>
    2554:	e2850f81 	add	r0, r5, #516	; 0x204
    2558:	e8bd8038 	pop	{r3, r4, r5, pc}
    255c:	0000551f 	.word	0x0000551f
    2560:	00001c07 	.word	0x00001c07
    2564:	00001c08 	.word	0x00001c08
    2568:	00400894 	.word	0x00400894
    256c:	00400694 	.word	0x00400694
    2570:	00001c09 	.word	0x00001c09

00002574 <synaptogenesis_dynamics_initialise>:
    2574:	e12fff1e 	bx	lr

00002578 <synaptogenesis_dynamics_rewire>:
    2578:	e3a00002 	mov	r0, #2
    257c:	e59f1008 	ldr	r1, [pc, #8]	; 258c <synaptogenesis_dynamics_rewire+0x14>
    2580:	e59f2008 	ldr	r2, [pc, #8]	; 2590 <synaptogenesis_dynamics_rewire+0x18>
    2584:	e59f3008 	ldr	r3, [pc, #8]	; 2594 <synaptogenesis_dynamics_rewire+0x1c>
    2588:	ea000b9a 	b	53f8 <__io_printf_from_arm>
    258c:	0000549d 	.word	0x0000549d
    2590:	00001cc7 	.word	0x00001cc7
    2594:	000054a4 	.word	0x000054a4

00002598 <synaptic_row_restructure>:
    2598:	e3a00002 	mov	r0, #2
    259c:	e59f1008 	ldr	r1, [pc, #8]	; 25ac <synaptic_row_restructure+0x14>
    25a0:	e59f2008 	ldr	r2, [pc, #8]	; 25b0 <synaptic_row_restructure+0x18>
    25a4:	e59f3008 	ldr	r3, [pc, #8]	; 25b4 <synaptic_row_restructure+0x1c>
    25a8:	ea000b92 	b	53f8 <__io_printf_from_arm>
    25ac:	0000549d 	.word	0x0000549d
    25b0:	00001cc8 	.word	0x00001cc8
    25b4:	000054a4 	.word	0x000054a4

000025b8 <synaptogenesis_dynamics_formation_rule>:
    25b8:	e3a00000 	mov	r0, #0
    25bc:	e12fff1e 	bx	lr

000025c0 <synaptogenesis_dynamics_elimination_rule>:
    25c0:	e3a00000 	mov	r0, #0
    25c4:	e12fff1e 	bx	lr

000025c8 <get_p_rew>:
    25c8:	e3e00000 	mvn	r0, #0
    25cc:	e12fff1e 	bx	lr

000025d0 <is_fast>:
    25d0:	e3a00000 	mov	r0, #0
    25d4:	e12fff1e 	bx	lr

000025d8 <update_goal_posts>:
    25d8:	e12fff1e 	bx	lr

000025dc <data_specification_get_data_address>:
    25dc:	e92d4008 	push	{r3, lr}
    25e0:	fa000a20 	blx	4e68 <spin1_get_core_id>
    25e4:	e1a00380 	lsl	r0, r0, #7
    25e8:	e28004e5 	add	r0, r0, #-452984832	; 0xe5000000
    25ec:	e2800a07 	add	r0, r0, #28672	; 0x7000
    25f0:	e5900070 	ldr	r0, [r0, #112]	; 0x70
    25f4:	e8bd8008 	pop	{r3, pc}

000025f8 <data_specification_read_header>:
    25f8:	e5903000 	ldr	r3, [r0]
    25fc:	e59f2068 	ldr	r2, [pc, #104]	; 266c <data_specification_read_header+0x74>
    2600:	e92d4013 	push	{r0, r1, r4, lr}
    2604:	e1530002 	cmp	r3, r2
    2608:	13a00002 	movne	r0, #2
    260c:	159f105c 	ldrne	r1, [pc, #92]	; 2670 <data_specification_read_header+0x78>
    2610:	13a0203e 	movne	r2, #62	; 0x3e
    2614:	1a000006 	bne	2634 <data_specification_read_header+0x3c>
    2618:	e590c004 	ldr	ip, [r0, #4]
    261c:	e35c0801 	cmp	ip, #65536	; 0x10000
    2620:	0a000006 	beq	2640 <data_specification_read_header+0x48>
    2624:	e59f1044 	ldr	r1, [pc, #68]	; 2670 <data_specification_read_header+0x78>
    2628:	e3a00002 	mov	r0, #2
    262c:	e3a0203f 	mov	r2, #63	; 0x3f
    2630:	e1a0300c 	mov	r3, ip
    2634:	fa00074e 	blx	4374 <io_printf>
    2638:	e3a00000 	mov	r0, #0
    263c:	ea000008 	b	2664 <data_specification_read_header+0x6c>
    2640:	e3a04001 	mov	r4, #1
    2644:	e3a02000 	mov	r2, #0
    2648:	e58d2004 	str	r2, [sp, #4]
    264c:	e3a00002 	mov	r0, #2
    2650:	e58d4000 	str	r4, [sp]
    2654:	e59f1018 	ldr	r1, [pc, #24]	; 2674 <data_specification_read_header+0x7c>
    2658:	e3a02040 	mov	r2, #64	; 0x40
    265c:	fa000744 	blx	4374 <io_printf>
    2660:	e1a00004 	mov	r0, r4
    2664:	e28dd008 	add	sp, sp, #8
    2668:	e8bd8010 	pop	{r4, pc}
    266c:	ad130ad6 	.word	0xad130ad6
    2670:	00005500 	.word	0x00005500
    2674:	000054d8 	.word	0x000054d8

00002678 <data_specification_get_region>:
    2678:	e2800002 	add	r0, r0, #2
    267c:	e7910100 	ldr	r0, [r1, r0, lsl #2]
    2680:	e12fff1e 	bx	lr

00002684 <_execute_provenance_storage>:
    2684:	e92d4070 	push	{r4, r5, r6, lr}
    2688:	e59f407c 	ldr	r4, [pc, #124]	; 270c <_execute_provenance_storage+0x88>
    268c:	e5943000 	ldr	r3, [r4]
    2690:	e3530000 	cmp	r3, #0
    2694:	08bd8070 	popeq	{r4, r5, r6, pc}
    2698:	e3a00002 	mov	r0, #2
    269c:	e3a0202c 	mov	r2, #44	; 0x2c
    26a0:	e59f1068 	ldr	r1, [pc, #104]	; 2710 <_execute_provenance_storage+0x8c>
    26a4:	fa000732 	blx	4374 <io_printf>
    26a8:	e59f3064 	ldr	r3, [pc, #100]	; 2714 <_execute_provenance_storage+0x90>
    26ac:	e5940000 	ldr	r0, [r4]
    26b0:	e5932024 	ldr	r2, [r3, #36]	; 0x24
    26b4:	e5802000 	str	r2, [r0]
    26b8:	e5932020 	ldr	r2, [r3, #32]
    26bc:	e5802004 	str	r2, [r0, #4]
    26c0:	e59f5050 	ldr	r5, [pc, #80]	; 2718 <_execute_provenance_storage+0x94>
    26c4:	e593201c 	ldr	r2, [r3, #28]
    26c8:	e5802008 	str	r2, [r0, #8]
    26cc:	e5932044 	ldr	r2, [r3, #68]	; 0x44
    26d0:	e5933040 	ldr	r3, [r3, #64]	; 0x40
    26d4:	e5803010 	str	r3, [r0, #16]
    26d8:	e5953000 	ldr	r3, [r5]
    26dc:	e580200c 	str	r2, [r0, #12]
    26e0:	e3530000 	cmp	r3, #0
    26e4:	e2804014 	add	r4, r0, #20
    26e8:	08bd8070 	popeq	{r4, r5, r6, pc}
    26ec:	e3a00002 	mov	r0, #2
    26f0:	e59f1018 	ldr	r1, [pc, #24]	; 2710 <_execute_provenance_storage+0x8c>
    26f4:	e3a0202d 	mov	r2, #45	; 0x2d
    26f8:	fa00071d 	blx	4374 <io_printf>
    26fc:	e5953000 	ldr	r3, [r5]
    2700:	e1a00004 	mov	r0, r4
    2704:	e8bd4070 	pop	{r4, r5, r6, lr}
    2708:	e12fff13 	bx	r3
    270c:	00400164 	.word	0x00400164
    2710:	0000551f 	.word	0x0000551f
    2714:	0040098c 	.word	0x0040098c
    2718:	00400158 	.word	0x00400158

0000271c <_simulation_sdp_callback_handler>:
    271c:	e59f3010 	ldr	r3, [pc, #16]	; 2734 <_simulation_sdp_callback_handler+0x18>
    2720:	e7933101 	ldr	r3, [r3, r1, lsl #2]
    2724:	e3530000 	cmp	r3, #0
    2728:	0a000000 	beq	2730 <_simulation_sdp_callback_handler+0x14>
    272c:	e12fff13 	bx	r3
    2730:	ea000b3a 	b	5420 <__sark_msg_free_from_arm>
    2734:	004001ac 	.word	0x004001ac

00002738 <_simulation_dma_transfer_done_callback>:
    2738:	e351000f 	cmp	r1, #15
    273c:	812fff1e 	bxhi	lr
    2740:	e59f200c 	ldr	r2, [pc, #12]	; 2754 <_simulation_dma_transfer_done_callback+0x1c>
    2744:	e7923101 	ldr	r3, [r2, r1, lsl #2]
    2748:	e3530000 	cmp	r3, #0
    274c:	012fff1e 	bxeq	lr
    2750:	e12fff13 	bx	r3
    2754:	0040016c 	.word	0x0040016c

00002758 <simulation_run>:
    2758:	ea000b2a 	b	5408 <__spin1_start_paused_from_arm>

0000275c <simulation_handle_pause_resume>:
    275c:	e92d4010 	push	{r4, lr}
    2760:	e1a04000 	mov	r4, r0
    2764:	fa000821 	blx	47f0 <spin1_pause>
    2768:	e59f3008 	ldr	r3, [pc, #8]	; 2778 <simulation_handle_pause_resume+0x1c>
    276c:	e5834000 	str	r4, [r3]
    2770:	e8bd4010 	pop	{r4, lr}
    2774:	eaffffc2 	b	2684 <_execute_provenance_storage>
    2778:	00400160 	.word	0x00400160

0000277c <simulation_ready_to_read>:
    277c:	e3a00005 	mov	r0, #5
    2780:	ea000b28 	b	5428 <__sark_cpu_state_from_arm>

00002784 <_send_ok_response>:
    2784:	e3a02080 	mov	r2, #128	; 0x80
    2788:	e5d0100a 	ldrb	r1, [r0, #10]
    278c:	e1c021b0 	strh	r2, [r0, #16]
    2790:	e3a0200c 	mov	r2, #12
    2794:	e5d0c00b 	ldrb	ip, [r0, #11]
    2798:	e1c020b4 	strh	r2, [r0, #4]
    279c:	e5c0100b 	strb	r1, [r0, #11]
    27a0:	e1d020bc 	ldrh	r2, [r0, #12]
    27a4:	e1d010be 	ldrh	r1, [r0, #14]
    27a8:	e1c010bc 	strh	r1, [r0, #12]
    27ac:	e5c0c00a 	strb	ip, [r0, #10]
    27b0:	e1c020be 	strh	r2, [r0, #14]
    27b4:	e3a0100a 	mov	r1, #10
    27b8:	ea000b16 	b	5418 <__spin1_send_sdp_msg_from_arm>

000027bc <_simulation_control_scp_callback>:
    27bc:	e92d4038 	push	{r3, r4, r5, lr}
    27c0:	e1d031b0 	ldrh	r3, [r0, #16]
    27c4:	e1a04000 	mov	r4, r0
    27c8:	e2432006 	sub	r2, r3, #6
    27cc:	e3520003 	cmp	r2, #3
    27d0:	979ff102 	ldrls	pc, [pc, r2, lsl #2]
    27d4:	ea000059 	b	2940 <_simulation_control_scp_callback+0x184>
    27d8:	000027e8 	.word	0x000027e8
    27dc:	00002840 	.word	0x00002840
    27e0:	000028d4 	.word	0x000028d4
    27e4:	00002924 	.word	0x00002924
    27e8:	e3a00002 	mov	r0, #2
    27ec:	e59f1168 	ldr	r1, [pc, #360]	; 295c <_simulation_control_scp_callback+0x1a0>
    27f0:	e3a0202e 	mov	r2, #46	; 0x2e
    27f4:	fa0006de 	blx	4374 <io_printf>
    27f8:	e1a00004 	mov	r0, r4
    27fc:	e59f415c 	ldr	r4, [pc, #348]	; 2960 <_simulation_control_scp_callback+0x1a4>
    2800:	fa000784 	blx	4618 <spin1_msg_free>
    2804:	e5943000 	ldr	r3, [r4]
    2808:	e3530000 	cmp	r3, #0
    280c:	0a000005 	beq	2828 <_simulation_control_scp_callback+0x6c>
    2810:	e3a00002 	mov	r0, #2
    2814:	e59f1140 	ldr	r1, [pc, #320]	; 295c <_simulation_control_scp_callback+0x1a0>
    2818:	e3a0202f 	mov	r2, #47	; 0x2f
    281c:	fa0006d4 	blx	4374 <io_printf>
    2820:	e5943000 	ldr	r3, [r4]
    2824:	e12fff33 	blx	r3
    2828:	e3a00002 	mov	r0, #2
    282c:	e59f1128 	ldr	r1, [pc, #296]	; 295c <_simulation_control_scp_callback+0x1a0>
    2830:	e3a02030 	mov	r2, #48	; 0x30
    2834:	fa0006ce 	blx	4374 <io_printf>
    2838:	e3a00000 	mov	r0, #0
    283c:	ea000036 	b	291c <_simulation_control_scp_callback+0x160>
    2840:	e3a00002 	mov	r0, #2
    2844:	e59f1118 	ldr	r1, [pc, #280]	; 2964 <_simulation_control_scp_callback+0x1a8>
    2848:	e3a02031 	mov	r2, #49	; 0x31
    284c:	e5943014 	ldr	r3, [r4, #20]
    2850:	fa0006c7 	blx	4374 <io_printf>
    2854:	e3a02032 	mov	r2, #50	; 0x32
    2858:	e5943018 	ldr	r3, [r4, #24]
    285c:	e3a00002 	mov	r0, #2
    2860:	e59f10fc 	ldr	r1, [pc, #252]	; 2964 <_simulation_control_scp_callback+0x1a8>
    2864:	fa0006c2 	blx	4374 <io_printf>
    2868:	e59f30f8 	ldr	r3, [pc, #248]	; 2968 <_simulation_control_scp_callback+0x1ac>
    286c:	e5942014 	ldr	r2, [r4, #20]
    2870:	e5933000 	ldr	r3, [r3]
    2874:	e59f50f0 	ldr	r5, [pc, #240]	; 296c <_simulation_control_scp_callback+0x1b0>
    2878:	e5832000 	str	r2, [r3]
    287c:	e59f30ec 	ldr	r3, [pc, #236]	; 2970 <_simulation_control_scp_callback+0x1b4>
    2880:	e5942018 	ldr	r2, [r4, #24]
    2884:	e5933000 	ldr	r3, [r3]
    2888:	e5832000 	str	r2, [r3]
    288c:	e5953000 	ldr	r3, [r5]
    2890:	e3530000 	cmp	r3, #0
    2894:	0a000007 	beq	28b8 <_simulation_control_scp_callback+0xfc>
    2898:	e3a00002 	mov	r0, #2
    289c:	e59f10b8 	ldr	r1, [pc, #184]	; 295c <_simulation_control_scp_callback+0x1a0>
    28a0:	e3a02033 	mov	r2, #51	; 0x33
    28a4:	fa0006b2 	blx	4374 <io_printf>
    28a8:	e5953000 	ldr	r3, [r5]
    28ac:	e12fff33 	blx	r3
    28b0:	e3a03000 	mov	r3, #0
    28b4:	e5853000 	str	r3, [r5]
    28b8:	e3a00002 	mov	r0, #2
    28bc:	e59f1098 	ldr	r1, [pc, #152]	; 295c <_simulation_control_scp_callback+0x1a0>
    28c0:	e3a02034 	mov	r2, #52	; 0x34
    28c4:	fa0006aa 	blx	4374 <io_printf>
    28c8:	e3a00001 	mov	r0, #1
    28cc:	fa0007e5 	blx	4868 <spin1_resume>
    28d0:	ea000014 	b	2928 <_simulation_control_scp_callback+0x16c>
    28d4:	e59f5084 	ldr	r5, [pc, #132]	; 2960 <_simulation_control_scp_callback+0x1a4>
    28d8:	e3a00002 	mov	r0, #2
    28dc:	e59f1078 	ldr	r1, [pc, #120]	; 295c <_simulation_control_scp_callback+0x1a0>
    28e0:	e3a02035 	mov	r2, #53	; 0x35
    28e4:	fa0006a2 	blx	4374 <io_printf>
    28e8:	ebffff65 	bl	2684 <_execute_provenance_storage>
    28ec:	e5953000 	ldr	r3, [r5]
    28f0:	e3530000 	cmp	r3, #0
    28f4:	0a000005 	beq	2910 <_simulation_control_scp_callback+0x154>
    28f8:	e3a00002 	mov	r0, #2
    28fc:	e59f1058 	ldr	r1, [pc, #88]	; 295c <_simulation_control_scp_callback+0x1a0>
    2900:	e3a02036 	mov	r2, #54	; 0x36
    2904:	fa00069a 	blx	4374 <io_printf>
    2908:	e5953000 	ldr	r3, [r5]
    290c:	e12fff33 	blx	r3
    2910:	e1a00004 	mov	r0, r4
    2914:	fa00073f 	blx	4618 <spin1_msg_free>
    2918:	e3a00001 	mov	r0, #1
    291c:	e8bd4038 	pop	{r3, r4, r5, lr}
    2920:	ea000ac2 	b	5430 <__spin1_exit_from_arm>
    2924:	fa000615 	blx	4180 <sark_io_buf_reset>
    2928:	e594301c 	ldr	r3, [r4, #28]
    292c:	e3530001 	cmp	r3, #1
    2930:	1a000006 	bne	2950 <_simulation_control_scp_callback+0x194>
    2934:	e1a00004 	mov	r0, r4
    2938:	ebffff91 	bl	2784 <_send_ok_response>
    293c:	ea000003 	b	2950 <_simulation_control_scp_callback+0x194>
    2940:	e3a00002 	mov	r0, #2
    2944:	e59f1018 	ldr	r1, [pc, #24]	; 2964 <_simulation_control_scp_callback+0x1a8>
    2948:	e3a02037 	mov	r2, #55	; 0x37
    294c:	fa000688 	blx	4374 <io_printf>
    2950:	e1a00004 	mov	r0, r4
    2954:	e8bd4038 	pop	{r3, r4, r5, lr}
    2958:	ea000aac 	b	5410 <__spin1_msg_free_from_arm>
    295c:	0000551f 	.word	0x0000551f
    2960:	0040015c 	.word	0x0040015c
    2964:	00005438 	.word	0x00005438
    2968:	00400154 	.word	0x00400154
    296c:	00400160 	.word	0x00400160
    2970:	00400168 	.word	0x00400168

00002974 <simulation_sdp_callback_on>:
    2974:	e92d4008 	push	{r3, lr}
    2978:	e59f302c 	ldr	r3, [pc, #44]	; 29ac <simulation_sdp_callback_on+0x38>
    297c:	e7932100 	ldr	r2, [r3, r0, lsl #2]
    2980:	e3520000 	cmp	r2, #0
    2984:	1a000001 	bne	2990 <simulation_sdp_callback_on+0x1c>
    2988:	e7831100 	str	r1, [r3, r0, lsl #2]
    298c:	e8bd8008 	pop	{r3, pc}
    2990:	e1a03000 	mov	r3, r0
    2994:	e59f1014 	ldr	r1, [pc, #20]	; 29b0 <simulation_sdp_callback_on+0x3c>
    2998:	e3a00002 	mov	r0, #2
    299c:	e3a02038 	mov	r2, #56	; 0x38
    29a0:	fa000673 	blx	4374 <io_printf>
    29a4:	e3a00000 	mov	r0, #0
    29a8:	e8bd8008 	pop	{r3, pc}
    29ac:	004001ac 	.word	0x004001ac
    29b0:	00005438 	.word	0x00005438

000029b4 <simulation_dma_transfer_done_callback_on>:
    29b4:	e350000f 	cmp	r0, #15
    29b8:	e92d4008 	push	{r3, lr}
    29bc:	e1a03000 	mov	r3, r0
    29c0:	83a00002 	movhi	r0, #2
    29c4:	859f1038 	ldrhi	r1, [pc, #56]	; 2a04 <simulation_dma_transfer_done_callback_on+0x50>
    29c8:	83a02039 	movhi	r2, #57	; 0x39
    29cc:	83a0300f 	movhi	r3, #15
    29d0:	8a000008 	bhi	29f8 <simulation_dma_transfer_done_callback_on+0x44>
    29d4:	e59f202c 	ldr	r2, [pc, #44]	; 2a08 <simulation_dma_transfer_done_callback_on+0x54>
    29d8:	e7920100 	ldr	r0, [r2, r0, lsl #2]
    29dc:	e3500000 	cmp	r0, #0
    29e0:	1a000001 	bne	29ec <simulation_dma_transfer_done_callback_on+0x38>
    29e4:	e7821103 	str	r1, [r2, r3, lsl #2]
    29e8:	e8bd8008 	pop	{r3, pc}
    29ec:	e59f1010 	ldr	r1, [pc, #16]	; 2a04 <simulation_dma_transfer_done_callback_on+0x50>
    29f0:	e3a00002 	mov	r0, #2
    29f4:	e3a0203a 	mov	r2, #58	; 0x3a
    29f8:	fa00065d 	blx	4374 <io_printf>
    29fc:	e3a00000 	mov	r0, #0
    2a00:	e8bd8008 	pop	{r3, pc}
    2a04:	00005438 	.word	0x00005438
    2a08:	0040016c 	.word	0x0040016c

00002a0c <simulation_initialise>:
    2a0c:	e92d4013 	push	{r0, r1, r4, lr}
    2a10:	e1a04000 	mov	r4, r0
    2a14:	e1a00003 	mov	r0, r3
    2a18:	e5943000 	ldr	r3, [r4]
    2a1c:	e59dc014 	ldr	ip, [sp, #20]
    2a20:	e1530001 	cmp	r3, r1
    2a24:	0a000005 	beq	2a40 <simulation_initialise+0x34>
    2a28:	e88d0012 	stm	sp, {r1, r4}
    2a2c:	e3a00002 	mov	r0, #2
    2a30:	e59f1080 	ldr	r1, [pc, #128]	; 2ab8 <simulation_initialise+0xac>
    2a34:	e3a0203b 	mov	r2, #59	; 0x3b
    2a38:	fa00064d 	blx	4374 <io_printf>
    2a3c:	ea000006 	b	2a5c <simulation_initialise+0x50>
    2a40:	e37c0001 	cmn	ip, #1
    2a44:	aa000006 	bge	2a64 <simulation_initialise+0x58>
    2a48:	e3a00002 	mov	r0, #2
    2a4c:	e59f1068 	ldr	r1, [pc, #104]	; 2abc <simulation_initialise+0xb0>
    2a50:	e3a0203c 	mov	r2, #60	; 0x3c
    2a54:	e1a0300c 	mov	r3, ip
    2a58:	fa000645 	blx	4374 <io_printf>
    2a5c:	e3a00000 	mov	r0, #0
    2a60:	ea000012 	b	2ab0 <simulation_initialise+0xa4>
    2a64:	e5943004 	ldr	r3, [r4, #4]
    2a68:	e5823000 	str	r3, [r2]
    2a6c:	e59f204c 	ldr	r2, [pc, #76]	; 2ac0 <simulation_initialise+0xb4>
    2a70:	e59f304c 	ldr	r3, [pc, #76]	; 2ac4 <simulation_initialise+0xb8>
    2a74:	e5820000 	str	r0, [r2]
    2a78:	e59d2010 	ldr	r2, [sp, #16]
    2a7c:	e5832000 	str	r2, [r3]
    2a80:	e3a00003 	mov	r0, #3
    2a84:	e1a0200c 	mov	r2, ip
    2a88:	e59f1038 	ldr	r1, [pc, #56]	; 2ac8 <simulation_initialise+0xbc>
    2a8c:	fa0007c8 	blx	49b4 <spin1_callback_on>
    2a90:	e59f1034 	ldr	r1, [pc, #52]	; 2acc <simulation_initialise+0xc0>
    2a94:	e5940008 	ldr	r0, [r4, #8]
    2a98:	ebffffb5 	bl	2974 <simulation_sdp_callback_on>
    2a9c:	e3a00001 	mov	r0, #1
    2aa0:	e59f1028 	ldr	r1, [pc, #40]	; 2ad0 <simulation_initialise+0xc4>
    2aa4:	e59d2018 	ldr	r2, [sp, #24]
    2aa8:	fa0007c1 	blx	49b4 <spin1_callback_on>
    2aac:	e3a00001 	mov	r0, #1
    2ab0:	e28dd008 	add	sp, sp, #8
    2ab4:	e8bd8010 	pop	{r4, pc}
    2ab8:	000054e7 	.word	0x000054e7
    2abc:	00005438 	.word	0x00005438
    2ac0:	00400154 	.word	0x00400154
    2ac4:	00400168 	.word	0x00400168
    2ac8:	0000271c 	.word	0x0000271c
    2acc:	000027bc 	.word	0x000027bc
    2ad0:	00002738 	.word	0x00002738

00002ad4 <simulation_set_provenance_function>:
    2ad4:	e59f300c 	ldr	r3, [pc, #12]	; 2ae8 <simulation_set_provenance_function+0x14>
    2ad8:	e5830000 	str	r0, [r3]
    2adc:	e59f3008 	ldr	r3, [pc, #8]	; 2aec <simulation_set_provenance_function+0x18>
    2ae0:	e5831000 	str	r1, [r3]
    2ae4:	e12fff1e 	bx	lr
    2ae8:	00400158 	.word	0x00400158
    2aec:	00400164 	.word	0x00400164

00002af0 <circular_buffer_get_next>:
    2af0:	e5902008 	ldr	r2, [r0, #8]
    2af4:	e1a03000 	mov	r3, r0
    2af8:	e590000c 	ldr	r0, [r0, #12]
    2afc:	e0500002 	subs	r0, r0, r2
    2b00:	13a00001 	movne	r0, #1
    2b04:	e3500000 	cmp	r0, #0
    2b08:	012fff1e 	bxeq	lr
    2b0c:	e593c000 	ldr	ip, [r3]
    2b10:	e79c2102 	ldr	r2, [ip, r2, lsl #2]
    2b14:	e5812000 	str	r2, [r1]
    2b18:	e5932008 	ldr	r2, [r3, #8]
    2b1c:	e5931004 	ldr	r1, [r3, #4]
    2b20:	e2822001 	add	r2, r2, #1
    2b24:	e0022001 	and	r2, r2, r1
    2b28:	e5832008 	str	r2, [r3, #8]
    2b2c:	e12fff1e 	bx	lr

00002b30 <compute_available_space_in_channel>:
    2b30:	e59f3058 	ldr	r3, [pc, #88]	; 2b90 <compute_available_space_in_channel+0x60>
    2b34:	e0800080 	add	r0, r0, r0, lsl #1
    2b38:	e5933000 	ldr	r3, [r3]
    2b3c:	e1a00180 	lsl	r0, r0, #3
    2b40:	e083c000 	add	ip, r3, r0
    2b44:	e7931000 	ldr	r1, [r3, r0]
    2b48:	e59c0004 	ldr	r0, [ip, #4]
    2b4c:	e59c300c 	ldr	r3, [ip, #12]
    2b50:	e59c2010 	ldr	r2, [ip, #16]
    2b54:	e1530000 	cmp	r3, r0
    2b58:	e5dcc016 	ldrb	ip, [ip, #22]
    2b5c:	2a000003 	bcs	2b70 <compute_available_space_in_channel+0x40>
    2b60:	e0832002 	add	r2, r3, r2
    2b64:	e0603002 	rsb	r3, r0, r2
    2b68:	e0610003 	rsb	r0, r1, r3
    2b6c:	e12fff1e 	bx	lr
    2b70:	e1500003 	cmp	r0, r3
    2b74:	2a000001 	bcs	2b80 <compute_available_space_in_channel+0x50>
    2b78:	e0600003 	rsb	r0, r0, r3
    2b7c:	e12fff1e 	bx	lr
    2b80:	e35c0001 	cmp	ip, #1
    2b84:	10610002 	rsbne	r0, r1, r2
    2b88:	03a00000 	moveq	r0, #0
    2b8c:	e12fff1e 	bx	lr
    2b90:	0040031c 	.word	0x0040031c

00002b94 <_create_buffer_message>:
    2b94:	e3a0c00c 	mov	ip, #12
    2b98:	e001019c 	mul	r1, ip, r1
    2b9c:	e52de004 	push	{lr}		; (str lr, [sp, #-4]!)
    2ba0:	e3a0e000 	mov	lr, #0
    2ba4:	e7c0e001 	strb	lr, [r0, r1]
    2ba8:	e080c001 	add	ip, r0, r1
    2bac:	e59f1028 	ldr	r1, [pc, #40]	; 2bdc <_create_buffer_message+0x48>
    2bb0:	e5cc2002 	strb	r2, [ip, #2]
    2bb4:	e5910000 	ldr	r0, [r1]
    2bb8:	e3a01018 	mov	r1, #24
    2bbc:	e0220291 	mla	r2, r1, r2, r0
    2bc0:	e5cce001 	strb	lr, [ip, #1]
    2bc4:	e5d22014 	ldrb	r2, [r2, #20]
    2bc8:	e58c3004 	str	r3, [ip, #4]
    2bcc:	e59d3004 	ldr	r3, [sp, #4]
    2bd0:	e5cc2003 	strb	r2, [ip, #3]
    2bd4:	e58c3008 	str	r3, [ip, #8]
    2bd8:	e49df004 	pop	{pc}		; (ldr pc, [sp], #4)
    2bdc:	0040031c 	.word	0x0040031c

00002be0 <_recording_dma_finished>:
    2be0:	e92d401f 	push	{r0, r1, r2, r3, r4, lr}
    2be4:	e59f3058 	ldr	r3, [pc, #88]	; 2c44 <_recording_dma_finished+0x64>
    2be8:	e28d1004 	add	r1, sp, #4
    2bec:	e5934000 	ldr	r4, [r3]
    2bf0:	e1a00004 	mov	r0, r4
    2bf4:	ebffffbd 	bl	2af0 <circular_buffer_get_next>
    2bf8:	e28d1008 	add	r1, sp, #8
    2bfc:	e1a00004 	mov	r0, r4
    2c00:	ebffffba 	bl	2af0 <circular_buffer_get_next>
    2c04:	e28d100c 	add	r1, sp, #12
    2c08:	e1a00004 	mov	r0, r4
    2c0c:	ebffffb7 	bl	2af0 <circular_buffer_get_next>
    2c10:	e59f3030 	ldr	r3, [pc, #48]	; 2c48 <_recording_dma_finished+0x68>
    2c14:	e5dd0004 	ldrb	r0, [sp, #4]
    2c18:	e5933000 	ldr	r3, [r3]
    2c1c:	e3a02018 	mov	r2, #24
    2c20:	e0233092 	mla	r3, r2, r0, r3
    2c24:	e59d100c 	ldr	r1, [sp, #12]
    2c28:	e59d2008 	ldr	r2, [sp, #8]
    2c2c:	e3510000 	cmp	r1, #0
    2c30:	e5832008 	str	r2, [r3, #8]
    2c34:	0a000000 	beq	2c3c <_recording_dma_finished+0x5c>
    2c38:	e12fff31 	blx	r1
    2c3c:	e28dd010 	add	sp, sp, #16
    2c40:	e8bd8010 	pop	{r4, pc}
    2c44:	004001e0 	.word	0x004001e0
    2c48:	0040031c 	.word	0x0040031c

00002c4c <circular_buffer_add>:
    2c4c:	e1a03000 	mov	r3, r0
    2c50:	e590c00c 	ldr	ip, [r0, #12]
    2c54:	e5932004 	ldr	r2, [r3, #4]
    2c58:	e28c0001 	add	r0, ip, #1
    2c5c:	e0000002 	and	r0, r0, r2
    2c60:	e5932008 	ldr	r2, [r3, #8]
    2c64:	e0500002 	subs	r0, r0, r2
    2c68:	13a00001 	movne	r0, #1
    2c6c:	e3500000 	cmp	r0, #0
    2c70:	15932000 	ldrne	r2, [r3]
    2c74:	05932010 	ldreq	r2, [r3, #16]
    2c78:	1782110c 	strne	r1, [r2, ip, lsl #2]
    2c7c:	1593200c 	ldrne	r2, [r3, #12]
    2c80:	15931004 	ldrne	r1, [r3, #4]
    2c84:	12822001 	addne	r2, r2, #1
    2c88:	10022001 	andne	r2, r2, r1
    2c8c:	02822001 	addeq	r2, r2, #1
    2c90:	1583200c 	strne	r2, [r3, #12]
    2c94:	05832010 	streq	r2, [r3, #16]
    2c98:	e12fff1e 	bx	lr

00002c9c <_buffering_in_handler>:
    2c9c:	e1d031b0 	ldrh	r3, [r0, #16]
    2ca0:	e1b02723 	lsrs	r2, r3, #14
    2ca4:	0a000032 	beq	2d74 <_buffering_in_handler+0xd8>
    2ca8:	e1a03903 	lsl	r3, r3, #18
    2cac:	e1a03923 	lsr	r3, r3, #18
    2cb0:	e3530009 	cmp	r3, #9
    2cb4:	0a000002 	beq	2cc4 <_buffering_in_handler+0x28>
    2cb8:	e353000c 	cmp	r3, #12
    2cbc:	0a000023 	beq	2d50 <_buffering_in_handler+0xb4>
    2cc0:	ea00002b 	b	2d74 <_buffering_in_handler+0xd8>
    2cc4:	e59f20ac 	ldr	r2, [pc, #172]	; 2d78 <_buffering_in_handler+0xdc>
    2cc8:	e5d03013 	ldrb	r3, [r0, #19]
    2ccc:	e5921000 	ldr	r1, [r2]
    2cd0:	e92d4070 	push	{r4, r5, r6, lr}
    2cd4:	e1530001 	cmp	r3, r1
    2cd8:	e5d04012 	ldrb	r4, [r0, #18]
    2cdc:	1a000023 	bne	2d70 <_buffering_in_handler+0xd4>
    2ce0:	e2833001 	add	r3, r3, #1
    2ce4:	e20330ff 	and	r3, r3, #255	; 0xff
    2ce8:	e5823000 	str	r3, [r2]
    2cec:	e59f2088 	ldr	r2, [pc, #136]	; 2d7c <_buffering_in_handler+0xe0>
    2cf0:	e3a03000 	mov	r3, #0
    2cf4:	e5c23000 	strb	r3, [r2]
    2cf8:	e59f2080 	ldr	r2, [pc, #128]	; 2d80 <_buffering_in_handler+0xe4>
    2cfc:	e1a05000 	mov	r5, r0
    2d00:	e5926000 	ldr	r6, [r2]
    2d04:	e1530004 	cmp	r3, r4
    2d08:	2a000018 	bcs	2d70 <_buffering_in_handler+0xd4>
    2d0c:	e5d51016 	ldrb	r1, [r5, #22]
    2d10:	e595e018 	ldr	lr, [r5, #24]
    2d14:	e0811081 	add	r1, r1, r1, lsl #1
    2d18:	e086c181 	add	ip, r6, r1, lsl #3
    2d1c:	e59c200c 	ldr	r2, [ip, #12]
    2d20:	e2833001 	add	r3, r3, #1
    2d24:	e082200e 	add	r2, r2, lr
    2d28:	e59ce010 	ldr	lr, [ip, #16]
    2d2c:	e2855008 	add	r5, r5, #8
    2d30:	e15e0002 	cmp	lr, r2
    2d34:	97961181 	ldrls	r1, [r6, r1, lsl #3]
    2d38:	9061e00e 	rsbls	lr, r1, lr
    2d3c:	906e2002 	rsbls	r2, lr, r2
    2d40:	e58c200c 	str	r2, [ip, #12]
    2d44:	e3a02000 	mov	r2, #0
    2d48:	e5cc2016 	strb	r2, [ip, #22]
    2d4c:	eaffffec 	b	2d04 <_buffering_in_handler+0x68>
    2d50:	e59f3020 	ldr	r3, [pc, #32]	; 2d78 <_buffering_in_handler+0xdc>
    2d54:	e5d02012 	ldrb	r2, [r0, #18]
    2d58:	e5933000 	ldr	r3, [r3]
    2d5c:	e1520003 	cmp	r2, r3
    2d60:	059f3014 	ldreq	r3, [pc, #20]	; 2d7c <_buffering_in_handler+0xe0>
    2d64:	03a02001 	moveq	r2, #1
    2d68:	05c32000 	strbeq	r2, [r3]
    2d6c:	ea000000 	b	2d74 <_buffering_in_handler+0xd8>
    2d70:	e8bd4070 	pop	{r4, r5, r6, lr}
    2d74:	ea0009a5 	b	5410 <__spin1_msg_free_from_arm>
    2d78:	00400318 	.word	0x00400318
    2d7c:	004001dc 	.word	0x004001dc
    2d80:	0040031c 	.word	0x0040031c

00002d84 <_recording_write>:
    2d84:	e92d47f3 	push	{r0, r1, r4, r5, r6, r7, r8, r9, sl, lr}
    2d88:	e59d902c 	ldr	r9, [sp, #44]	; 0x2c
    2d8c:	e1a04000 	mov	r4, r0
    2d90:	e3590000 	cmp	r9, #0
    2d94:	e1a08002 	mov	r8, r2
    2d98:	e1a07003 	mov	r7, r3
    2d9c:	e59d6028 	ldr	r6, [sp, #40]	; 0x28
    2da0:	0a000015 	beq	2dfc <_recording_write+0x78>
    2da4:	e59f3078 	ldr	r3, [pc, #120]	; 2e24 <_recording_write+0xa0>
    2da8:	e1a0a001 	mov	sl, r1
    2dac:	e5935000 	ldr	r5, [r3]
    2db0:	e1a01004 	mov	r1, r4
    2db4:	e1a00005 	mov	r0, r5
    2db8:	ebffffa3 	bl	2c4c <circular_buffer_add>
    2dbc:	e1a01006 	mov	r1, r6
    2dc0:	e1a00005 	mov	r0, r5
    2dc4:	ebffffa0 	bl	2c4c <circular_buffer_add>
    2dc8:	e1a00005 	mov	r0, r5
    2dcc:	e1a01009 	mov	r1, r9
    2dd0:	ebffff9d 	bl	2c4c <circular_buffer_add>
    2dd4:	e58d7000 	str	r7, [sp]
    2dd8:	e3a0000f 	mov	r0, #15
    2ddc:	e1a01008 	mov	r1, r8
    2de0:	e1a0200a 	mov	r2, sl
    2de4:	e3a03001 	mov	r3, #1
    2de8:	fa0007af 	blx	4cac <spin1_dma_transfer>
    2dec:	e3500000 	cmp	r0, #0
    2df0:	1a000009 	bne	2e1c <_recording_write+0x98>
    2df4:	ebfff4f9 	bl	1e0 <cpu_wfi>
    2df8:	eafffff5 	b	2dd4 <_recording_write+0x50>
    2dfc:	e1a00002 	mov	r0, r2
    2e00:	e1a02003 	mov	r2, r3
    2e04:	fa0007d2 	blx	4d54 <spin1_memcpy>
    2e08:	e59f3018 	ldr	r3, [pc, #24]	; 2e28 <_recording_write+0xa4>
    2e0c:	e0844084 	add	r4, r4, r4, lsl #1
    2e10:	e5933000 	ldr	r3, [r3]
    2e14:	e0834184 	add	r4, r3, r4, lsl #3
    2e18:	e5846008 	str	r6, [r4, #8]
    2e1c:	e28dd008 	add	sp, sp, #8
    2e20:	e8bd87f0 	pop	{r4, r5, r6, r7, r8, r9, sl, pc}
    2e24:	004001e0 	.word	0x004001e0
    2e28:	0040031c 	.word	0x0040031c

00002e2c <recording_record_and_notify>:
    2e2c:	e92d4ff0 	push	{r4, r5, r6, r7, r8, r9, sl, fp, lr}
    2e30:	e59fb170 	ldr	fp, [pc, #368]	; 2fa8 <recording_record_and_notify+0x17c>
    2e34:	e1a04003 	mov	r4, r3
    2e38:	e0807080 	add	r7, r0, r0, lsl #1
    2e3c:	e59b3000 	ldr	r3, [fp]
    2e40:	e1a07187 	lsl	r7, r7, #3
    2e44:	e7939007 	ldr	r9, [r3, r7]
    2e48:	e24dd014 	sub	sp, sp, #20
    2e4c:	e3590000 	cmp	r9, #0
    2e50:	e1a08000 	mov	r8, r0
    2e54:	e0836007 	add	r6, r3, r7
    2e58:	0a000049 	beq	2f84 <recording_record_and_notify+0x158>
    2e5c:	e1a05002 	mov	r5, r2
    2e60:	e58d1008 	str	r1, [sp, #8]
    2e64:	ebffff31 	bl	2b30 <compute_available_space_in_channel>
    2e68:	e59dc008 	ldr	ip, [sp, #8]
    2e6c:	e1500005 	cmp	r0, r5
    2e70:	3a000037 	bcc	2f54 <recording_record_and_notify+0x128>
    2e74:	e5962004 	ldr	r2, [r6, #4]
    2e78:	e596100c 	ldr	r1, [r6, #12]
    2e7c:	e1a0a00b 	mov	sl, fp
    2e80:	e1510002 	cmp	r1, r2
    2e84:	e596b010 	ldr	fp, [r6, #16]
    2e88:	e5d63016 	ldrb	r3, [r6, #22]
    2e8c:	3a000002 	bcc	2e9c <recording_record_and_notify+0x70>
    2e90:	e3530000 	cmp	r3, #0
    2e94:	01510002 	cmpeq	r1, r2
    2e98:	1a000019 	bne	2f04 <recording_record_and_notify+0xd8>
    2e9c:	e062300b 	rsb	r3, r2, fp
    2ea0:	e1530005 	cmp	r3, r5
    2ea4:	2a00001b 	bcs	2f18 <recording_record_and_notify+0xec>
    2ea8:	e0690003 	rsb	r0, r9, r3
    2eac:	e0811000 	add	r1, r1, r0
    2eb0:	e1510005 	cmp	r1, r5
    2eb4:	3a000038 	bcc	2f9c <recording_record_and_notify+0x170>
    2eb8:	e1a00002 	mov	r0, r2
    2ebc:	e1a0100c 	mov	r1, ip
    2ec0:	e1a02003 	mov	r2, r3
    2ec4:	e58dc00c 	str	ip, [sp, #12]
    2ec8:	e58d3008 	str	r3, [sp, #8]
    2ecc:	fa0007a0 	blx	4d54 <spin1_memcpy>
    2ed0:	e59d3008 	ldr	r3, [sp, #8]
    2ed4:	e59a2000 	ldr	r2, [sl]
    2ed8:	e0635005 	rsb	r5, r3, r5
    2edc:	e59dc00c 	ldr	ip, [sp, #12]
    2ee0:	e0822007 	add	r2, r2, r7
    2ee4:	e0896005 	add	r6, r9, r5
    2ee8:	e5829008 	str	r9, [r2, #8]
    2eec:	e1a00008 	mov	r0, r8
    2ef0:	e58d6000 	str	r6, [sp]
    2ef4:	e58d4004 	str	r4, [sp, #4]
    2ef8:	e08c1003 	add	r1, ip, r3
    2efc:	e1a02009 	mov	r2, r9
    2f00:	ea000009 	b	2f2c <recording_record_and_notify+0x100>
    2f04:	e1520001 	cmp	r2, r1
    2f08:	2a000023 	bcs	2f9c <recording_record_and_notify+0x170>
    2f0c:	e0621001 	rsb	r1, r2, r1
    2f10:	e1510005 	cmp	r1, r5
    2f14:	3a000020 	bcc	2f9c <recording_record_and_notify+0x170>
    2f18:	e0826005 	add	r6, r2, r5
    2f1c:	e1a00008 	mov	r0, r8
    2f20:	e1a0100c 	mov	r1, ip
    2f24:	e58d6000 	str	r6, [sp]
    2f28:	e58d4004 	str	r4, [sp, #4]
    2f2c:	e1a03005 	mov	r3, r5
    2f30:	ebffff93 	bl	2d84 <_recording_write>
    2f34:	e59a3000 	ldr	r3, [sl]
    2f38:	e156000b 	cmp	r6, fp
    2f3c:	e0837007 	add	r7, r3, r7
    2f40:	01a06009 	moveq	r6, r9
    2f44:	e3a00001 	mov	r0, #1
    2f48:	e5876004 	str	r6, [r7, #4]
    2f4c:	e5c70016 	strb	r0, [r7, #22]
    2f50:	ea000012 	b	2fa0 <recording_record_and_notify+0x174>
    2f54:	e5d63015 	ldrb	r3, [r6, #21]
    2f58:	e3530000 	cmp	r3, #0
    2f5c:	1a000008 	bne	2f84 <recording_record_and_notify+0x158>
    2f60:	e1a03008 	mov	r3, r8
    2f64:	e3a00002 	mov	r0, #2
    2f68:	e59f103c 	ldr	r1, [pc, #60]	; 2fac <recording_record_and_notify+0x180>
    2f6c:	e3a0201a 	mov	r2, #26
    2f70:	fa0004ff 	blx	4374 <io_printf>
    2f74:	e59b3000 	ldr	r3, [fp]
    2f78:	e0837007 	add	r7, r3, r7
    2f7c:	e3a03001 	mov	r3, #1
    2f80:	e5c73015 	strb	r3, [r7, #21]
    2f84:	e3540000 	cmp	r4, #0
    2f88:	01a00004 	moveq	r0, r4
    2f8c:	0a000003 	beq	2fa0 <recording_record_and_notify+0x174>
    2f90:	e12fff34 	blx	r4
    2f94:	e3a00000 	mov	r0, #0
    2f98:	ea000000 	b	2fa0 <recording_record_and_notify+0x174>
    2f9c:	e3a00001 	mov	r0, #1
    2fa0:	e28dd014 	add	sp, sp, #20
    2fa4:	e8bd8ff0 	pop	{r4, r5, r6, r7, r8, r9, sl, fp, pc}
    2fa8:	0040031c 	.word	0x0040031c
    2fac:	0000551c 	.word	0x0000551c

00002fb0 <_recording_buffer_state_data_write>:
    2fb0:	e92d4010 	push	{r4, lr}
    2fb4:	e3a04000 	mov	r4, #0
    2fb8:	e59f3048 	ldr	r3, [pc, #72]	; 3008 <_recording_buffer_state_data_write+0x58>
    2fbc:	e5933000 	ldr	r3, [r3]
    2fc0:	e1540003 	cmp	r4, r3
    2fc4:	2a000009 	bcs	2ff0 <_recording_buffer_state_data_write+0x40>
    2fc8:	e59f303c 	ldr	r3, [pc, #60]	; 300c <_recording_buffer_state_data_write+0x5c>
    2fcc:	e59f103c 	ldr	r1, [pc, #60]	; 3010 <_recording_buffer_state_data_write+0x60>
    2fd0:	e5933000 	ldr	r3, [r3]
    2fd4:	e5911000 	ldr	r1, [r1]
    2fd8:	e3a02018 	mov	r2, #24
    2fdc:	e7930104 	ldr	r0, [r3, r4, lsl #2]
    2fe0:	e0211492 	mla	r1, r2, r4, r1
    2fe4:	fa00075a 	blx	4d54 <spin1_memcpy>
    2fe8:	e2844001 	add	r4, r4, #1
    2fec:	eafffff1 	b	2fb8 <_recording_buffer_state_data_write+0x8>
    2ff0:	e59f301c 	ldr	r3, [pc, #28]	; 3014 <_recording_buffer_state_data_write+0x64>
    2ff4:	e59f201c 	ldr	r2, [pc, #28]	; 3018 <_recording_buffer_state_data_write+0x68>
    2ff8:	e5933000 	ldr	r3, [r3]
    2ffc:	e5922000 	ldr	r2, [r2]
    3000:	e5832000 	str	r2, [r3]
    3004:	e8bd8010 	pop	{r4, pc}
    3008:	004001cc 	.word	0x004001cc
    300c:	004001e4 	.word	0x004001e4
    3010:	0040031c 	.word	0x0040031c
    3014:	0040030c 	.word	0x0040030c
    3018:	00400318 	.word	0x00400318

0000301c <recording_finalise>:
    301c:	e92d4070 	push	{r4, r5, r6, lr}
    3020:	e59f30b8 	ldr	r3, [pc, #184]	; 30e0 <recording_finalise+0xc4>
    3024:	e5932000 	ldr	r2, [r3]
    3028:	e592400c 	ldr	r4, [r2, #12]
    302c:	e5923008 	ldr	r3, [r2, #8]
    3030:	e1540003 	cmp	r4, r3
    3034:	35922004 	ldrcc	r2, [r2, #4]
    3038:	30844002 	addcc	r4, r4, r2
    303c:	32844001 	addcc	r4, r4, #1
    3040:	e0634004 	rsb	r4, r3, r4
    3044:	e3540000 	cmp	r4, #0
    3048:	0a000001 	beq	3054 <recording_finalise+0x38>
    304c:	ebfff463 	bl	1e0 <cpu_wfi>
    3050:	eafffff2 	b	3020 <recording_finalise+0x4>
    3054:	ebffffd5 	bl	2fb0 <_recording_buffer_state_data_write>
    3058:	e59f3084 	ldr	r3, [pc, #132]	; 30e4 <recording_finalise+0xc8>
    305c:	e5933000 	ldr	r3, [r3]
    3060:	e1540003 	cmp	r4, r3
    3064:	2a00001c 	bcs	30dc <recording_finalise+0xc0>
    3068:	e59f6078 	ldr	r6, [pc, #120]	; 30e8 <recording_finalise+0xcc>
    306c:	e20450ff 	and	r5, r4, #255	; 0xff
    3070:	e3a03018 	mov	r3, #24
    3074:	e0050593 	mul	r5, r3, r5
    3078:	e5962000 	ldr	r2, [r6]
    307c:	e7921005 	ldr	r1, [r2, r5]
    3080:	e3510000 	cmp	r1, #0
    3084:	0a000012 	beq	30d4 <recording_finalise+0xb8>
    3088:	e0232394 	mla	r3, r4, r3, r2
    308c:	e3a00002 	mov	r0, #2
    3090:	e5d33015 	ldrb	r3, [r3, #21]
    3094:	e59f1050 	ldr	r1, [pc, #80]	; 30ec <recording_finalise+0xd0>
    3098:	e3530000 	cmp	r3, #0
    309c:	13a0201d 	movne	r2, #29
    30a0:	03a0201e 	moveq	r2, #30
    30a4:	e1a03004 	mov	r3, r4
    30a8:	fa0004b1 	blx	4374 <io_printf>
    30ac:	e5962000 	ldr	r2, [r6]
    30b0:	e3a03000 	mov	r3, #0
    30b4:	e0821005 	add	r1, r2, r5
    30b8:	e7823005 	str	r3, [r2, r5]
    30bc:	e3a00002 	mov	r0, #2
    30c0:	e5813010 	str	r3, [r1, #16]
    30c4:	e3a02020 	mov	r2, #32
    30c8:	e59f101c 	ldr	r1, [pc, #28]	; 30ec <recording_finalise+0xd0>
    30cc:	e1a03004 	mov	r3, r4
    30d0:	fa0004a7 	blx	4374 <io_printf>
    30d4:	e2844001 	add	r4, r4, #1
    30d8:	eaffffde 	b	3058 <recording_finalise+0x3c>
    30dc:	e8bd8070 	pop	{r4, r5, r6, pc}
    30e0:	004001e0 	.word	0x004001e0
    30e4:	004001cc 	.word	0x004001cc
    30e8:	0040031c 	.word	0x0040031c
    30ec:	0000551c 	.word	0x0000551c

000030f0 <recording_reset>:
    30f0:	e92d4013 	push	{r0, r1, r4, lr}
    30f4:	e3a04000 	mov	r4, #0
    30f8:	e59f30f4 	ldr	r3, [pc, #244]	; 31f4 <recording_reset+0x104>
    30fc:	e5933000 	ldr	r3, [r3]
    3100:	e1540003 	cmp	r4, r3
    3104:	2a000032 	bcs	31d4 <recording_reset+0xe4>
    3108:	e59f30e8 	ldr	r3, [pc, #232]	; 31f8 <recording_reset+0x108>
    310c:	e59fc0e8 	ldr	ip, [pc, #232]	; 31fc <recording_reset+0x10c>
    3110:	e5933000 	ldr	r3, [r3]
    3114:	e7933104 	ldr	r3, [r3, r4, lsl #2]
    3118:	e3530000 	cmp	r3, #0
    311c:	0a000019 	beq	3188 <recording_reset+0x98>
    3120:	e59f20d8 	ldr	r2, [pc, #216]	; 3200 <recording_reset+0x110>
    3124:	e3a00018 	mov	r0, #24
    3128:	e5922000 	ldr	r2, [r2]
    312c:	e0000094 	mul	r0, r4, r0
    3130:	e7922104 	ldr	r2, [r2, r4, lsl #2]
    3134:	e59cc000 	ldr	ip, [ip]
    3138:	e2822018 	add	r2, r2, #24
    313c:	e78c2000 	str	r2, [ip, r0]
    3140:	e08c1000 	add	r1, ip, r0
    3144:	e0820003 	add	r0, r2, r3
    3148:	e5810010 	str	r0, [r1, #16]
    314c:	e3a00000 	mov	r0, #0
    3150:	e5812004 	str	r2, [r1, #4]
    3154:	e5812008 	str	r2, [r1, #8]
    3158:	e581200c 	str	r2, [r1, #12]
    315c:	e5c10016 	strb	r0, [r1, #22]
    3160:	e5c14014 	strb	r4, [r1, #20]
    3164:	e5c10015 	strb	r0, [r1, #21]
    3168:	e58d3000 	str	r3, [sp]
    316c:	e58d2004 	str	r2, [sp, #4]
    3170:	e3a00002 	mov	r0, #2
    3174:	e59f1088 	ldr	r1, [pc, #136]	; 3204 <recording_reset+0x114>
    3178:	e3a02029 	mov	r2, #41	; 0x29
    317c:	e1a03004 	mov	r3, r4
    3180:	fa00047b 	blx	4374 <io_printf>
    3184:	ea000010 	b	31cc <recording_reset+0xdc>
    3188:	e3a01018 	mov	r1, #24
    318c:	e0010194 	mul	r1, r4, r1
    3190:	e59c0000 	ldr	r0, [ip]
    3194:	e0802001 	add	r2, r0, r1
    3198:	e7803001 	str	r3, [r0, r1]
    319c:	e5823004 	str	r3, [r2, #4]
    31a0:	e5823008 	str	r3, [r2, #8]
    31a4:	e582300c 	str	r3, [r2, #12]
    31a8:	e5823010 	str	r3, [r2, #16]
    31ac:	e5c23016 	strb	r3, [r2, #22]
    31b0:	e5c23015 	strb	r3, [r2, #21]
    31b4:	e5c24014 	strb	r4, [r2, #20]
    31b8:	e3a00002 	mov	r0, #2
    31bc:	e59f1044 	ldr	r1, [pc, #68]	; 3208 <recording_reset+0x118>
    31c0:	e3a0202a 	mov	r2, #42	; 0x2a
    31c4:	e1a03004 	mov	r3, r4
    31c8:	fa000469 	blx	4374 <io_printf>
    31cc:	e2844001 	add	r4, r4, #1
    31d0:	eaffffc8 	b	30f8 <recording_reset+0x8>
    31d4:	ebffff75 	bl	2fb0 <_recording_buffer_state_data_write>
    31d8:	e59f202c 	ldr	r2, [pc, #44]	; 320c <recording_reset+0x11c>
    31dc:	e3a03000 	mov	r3, #0
    31e0:	e5823000 	str	r3, [r2]
    31e4:	e59f2024 	ldr	r2, [pc, #36]	; 3210 <recording_reset+0x120>
    31e8:	e5c23000 	strb	r3, [r2]
    31ec:	e28dd008 	add	sp, sp, #8
    31f0:	e8bd8010 	pop	{r4, pc}
    31f4:	004001cc 	.word	0x004001cc
    31f8:	00400310 	.word	0x00400310
    31fc:	0040031c 	.word	0x0040031c
    3200:	004001e4 	.word	0x004001e4
    3204:	000054fa 	.word	0x000054fa
    3208:	0000551c 	.word	0x0000551c
    320c:	00400318 	.word	0x00400318
    3210:	004001dc 	.word	0x004001dc

00003214 <recording_initialize>:
    3214:	e92d4ff0 	push	{r4, r5, r6, r7, r8, r9, sl, fp, lr}
    3218:	e1a05000 	mov	r5, r0
    321c:	e24dd01c 	sub	sp, sp, #28
    3220:	e3a00040 	mov	r0, #64	; 0x40
    3224:	e1a09001 	mov	r9, r1
    3228:	eb000167 	bl	37cc <circular_buffer_initialize>
    322c:	e59f7268 	ldr	r7, [pc, #616]	; 349c <recording_initialize+0x288>
    3230:	e5952008 	ldr	r2, [r5, #8]
    3234:	e59f3264 	ldr	r3, [pc, #612]	; 34a0 <recording_initialize+0x28c>
    3238:	e58d2010 	str	r2, [sp, #16]
    323c:	e595200c 	ldr	r2, [r5, #12]
    3240:	e5951014 	ldr	r1, [r5, #20]
    3244:	e5872000 	str	r2, [r7]
    3248:	e59f2254 	ldr	r2, [pc, #596]	; 34a4 <recording_initialize+0x290>
    324c:	e3510031 	cmp	r1, #49	; 0x31
    3250:	e595b004 	ldr	fp, [r5, #4]
    3254:	93a01032 	movls	r1, #50	; 0x32
    3258:	e59fc248 	ldr	ip, [pc, #584]	; 34a8 <recording_initialize+0x294>
    325c:	e59f4248 	ldr	r4, [pc, #584]	; 34ac <recording_initialize+0x298>
    3260:	e5830000 	str	r0, [r3]
    3264:	e5950010 	ldr	r0, [r5, #16]
    3268:	e5820000 	str	r0, [r2]
    326c:	e59f223c 	ldr	r2, [pc, #572]	; 34b0 <recording_initialize+0x29c>
    3270:	e5953000 	ldr	r3, [r5]
    3274:	e5821000 	str	r1, [r2]
    3278:	e2851018 	add	r1, r5, #24
    327c:	e58c1000 	str	r1, [ip]
    3280:	e20b10ff 	and	r1, fp, #255	; 0xff
    3284:	e5843000 	str	r3, [r4]
    3288:	e58d1000 	str	r1, [sp]
    328c:	e58d0004 	str	r0, [sp, #4]
    3290:	e5922000 	ldr	r2, [r2]
    3294:	e58d2008 	str	r2, [sp, #8]
    3298:	e3a00002 	mov	r0, #2
    329c:	e59f1210 	ldr	r1, [pc, #528]	; 34b4 <recording_initialize+0x2a0>
    32a0:	e3a02021 	mov	r2, #33	; 0x21
    32a4:	fa000432 	blx	4374 <io_printf>
    32a8:	e5940000 	ldr	r0, [r4]
    32ac:	e1a00100 	lsl	r0, r0, #2
    32b0:	fa0006f2 	blx	4e80 <spin1_malloc>
    32b4:	e59f31fc 	ldr	r3, [pc, #508]	; 34b8 <recording_initialize+0x2a4>
    32b8:	e3500000 	cmp	r0, #0
    32bc:	e1a04000 	mov	r4, r0
    32c0:	e5830000 	str	r0, [r3]
    32c4:	03a00002 	moveq	r0, #2
    32c8:	059f11ec 	ldreq	r1, [pc, #492]	; 34bc <recording_initialize+0x2a8>
    32cc:	03a02022 	moveq	r2, #34	; 0x22
    32d0:	0a00000b 	beq	3304 <recording_initialize+0xf0>
    32d4:	e59f31d0 	ldr	r3, [pc, #464]	; 34ac <recording_initialize+0x298>
    32d8:	e5930000 	ldr	r0, [r3]
    32dc:	e1a00100 	lsl	r0, r0, #2
    32e0:	fa0006e6 	blx	4e80 <spin1_malloc>
    32e4:	e59f31d4 	ldr	r3, [pc, #468]	; 34c0 <recording_initialize+0x2ac>
    32e8:	e3500000 	cmp	r0, #0
    32ec:	e1a04000 	mov	r4, r0
    32f0:	e5830000 	str	r0, [r3]
    32f4:	1a000005 	bne	3310 <recording_initialize+0xfc>
    32f8:	e59f11bc 	ldr	r1, [pc, #444]	; 34bc <recording_initialize+0x2a8>
    32fc:	e3a00002 	mov	r0, #2
    3300:	e3a02023 	mov	r2, #35	; 0x23
    3304:	fa00041a 	blx	4374 <io_printf>
    3308:	e1a00004 	mov	r0, r4
    330c:	ea000060 	b	3494 <recording_initialize+0x280>
    3310:	e3590000 	cmp	r9, #0
    3314:	13a03000 	movne	r3, #0
    3318:	e285801c 	add	r8, r5, #28
    331c:	e3a04000 	mov	r4, #0
    3320:	15893000 	strne	r3, [r9]
    3324:	e59f3180 	ldr	r3, [pc, #384]	; 34ac <recording_initialize+0x298>
    3328:	e5933000 	ldr	r3, [r3]
    332c:	e1540003 	cmp	r4, r3
    3330:	2a00002e 	bcs	33f0 <recording_initialize+0x1dc>
    3334:	e0843003 	add	r3, r4, r3
    3338:	e0853103 	add	r3, r5, r3, lsl #2
    333c:	e593601c 	ldr	r6, [r3, #28]
    3340:	e59fa170 	ldr	sl, [pc, #368]	; 34b8 <recording_initialize+0x2a4>
    3344:	e3560000 	cmp	r6, #0
    3348:	e59f3170 	ldr	r3, [pc, #368]	; 34c0 <recording_initialize+0x2ac>
    334c:	0a00001f 	beq	33d0 <recording_initialize+0x1bc>
    3350:	e5933000 	ldr	r3, [r3]
    3354:	e59ac000 	ldr	ip, [sl]
    3358:	e3a02000 	mov	r2, #0
    335c:	e58dc014 	str	ip, [sp, #20]
    3360:	e7836104 	str	r6, [r3, r4, lsl #2]
    3364:	e5d2305c 	ldrb	r3, [r2, #92]	; 0x5c
    3368:	e59f1154 	ldr	r1, [pc, #340]	; 34c4 <recording_initialize+0x2b0>
    336c:	e1a03403 	lsl	r3, r3, #8
    3370:	e591004c 	ldr	r0, [r1, #76]	; 0x4c
    3374:	e2833003 	add	r3, r3, #3
    3378:	e2861018 	add	r1, r6, #24
    337c:	fa000308 	blx	3fa4 <sark_xalloc>
    3380:	e59dc014 	ldr	ip, [sp, #20]
    3384:	e59a3000 	ldr	r3, [sl]
    3388:	e78c0104 	str	r0, [ip, r4, lsl #2]
    338c:	e793a104 	ldr	sl, [r3, r4, lsl #2]
    3390:	e35a0000 	cmp	sl, #0
    3394:	1a000007 	bne	33b8 <recording_initialize+0x1a4>
    3398:	e3a00002 	mov	r0, #2
    339c:	e58d6000 	str	r6, [sp]
    33a0:	e59f1120 	ldr	r1, [pc, #288]	; 34c8 <recording_initialize+0x2b4>
    33a4:	e3a02024 	mov	r2, #36	; 0x24
    33a8:	e1a03004 	mov	r3, r4
    33ac:	fa0003f0 	blx	4374 <io_printf>
    33b0:	e1a0000a 	mov	r0, sl
    33b4:	ea000036 	b	3494 <recording_initialize+0x280>
    33b8:	e5993000 	ldr	r3, [r9]
    33bc:	e3a02001 	mov	r2, #1
    33c0:	e1833412 	orr	r3, r3, r2, lsl r4
    33c4:	e588a000 	str	sl, [r8]
    33c8:	e5893000 	str	r3, [r9]
    33cc:	ea000004 	b	33e4 <recording_initialize+0x1d0>
    33d0:	e59a2000 	ldr	r2, [sl]
    33d4:	e5933000 	ldr	r3, [r3]
    33d8:	e5886000 	str	r6, [r8]
    33dc:	e7826104 	str	r6, [r2, r4, lsl #2]
    33e0:	e7836104 	str	r6, [r3, r4, lsl #2]
    33e4:	e2844001 	add	r4, r4, #1
    33e8:	e2888004 	add	r8, r8, #4
    33ec:	eaffffcc 	b	3324 <recording_initialize+0x110>
    33f0:	e3a00018 	mov	r0, #24
    33f4:	e0000093 	mul	r0, r3, r0
    33f8:	fa0006a0 	blx	4e80 <spin1_malloc>
    33fc:	e59f30c8 	ldr	r3, [pc, #200]	; 34cc <recording_initialize+0x2b8>
    3400:	e3500000 	cmp	r0, #0
    3404:	e1a04000 	mov	r4, r0
    3408:	e5830000 	str	r0, [r3]
    340c:	03a00002 	moveq	r0, #2
    3410:	059f10a4 	ldreq	r1, [pc, #164]	; 34bc <recording_initialize+0x2a8>
    3414:	03a02025 	moveq	r2, #37	; 0x25
    3418:	0affffb9 	beq	3304 <recording_initialize+0xf0>
    341c:	e59f40ac 	ldr	r4, [pc, #172]	; 34d0 <recording_initialize+0x2bc>
    3420:	ebffff32 	bl	30f0 <recording_reset>
    3424:	e59f30a8 	ldr	r3, [pc, #168]	; 34d4 <recording_initialize+0x2c0>
    3428:	e2842010 	add	r2, r4, #16
    342c:	e5832000 	str	r2, [r3]
    3430:	e59f30a0 	ldr	r3, [pc, #160]	; 34d8 <recording_initialize+0x2c4>
    3434:	e2842014 	add	r2, r4, #20
    3438:	e5832000 	str	r2, [r3]
    343c:	e3a03007 	mov	r3, #7
    3440:	e5c43008 	strb	r3, [r4, #8]
    3444:	e3e03000 	mvn	r3, #0
    3448:	e5c4300a 	strb	r3, [r4, #10]
    344c:	e5975000 	ldr	r5, [r7]
    3450:	e5c4b009 	strb	fp, [r4, #9]
    3454:	fa000683 	blx	4e68 <spin1_get_core_id>
    3458:	e1a05285 	lsl	r5, r5, #5
    345c:	e20550ff 	and	r5, r5, #255	; 0xff
    3460:	e1dd31b0 	ldrh	r3, [sp, #16]
    3464:	e1c430bc 	strh	r3, [r4, #12]
    3468:	e1850000 	orr	r0, r5, r0
    346c:	e5c4000b 	strb	r0, [r4, #11]
    3470:	fa00067f 	blx	4e74 <spin1_get_chip_id>
    3474:	e59f1060 	ldr	r1, [pc, #96]	; 34dc <recording_initialize+0x2c8>
    3478:	e1c400be 	strh	r0, [r4, #14]
    347c:	e5970000 	ldr	r0, [r7]
    3480:	ebfffd3b 	bl	2974 <simulation_sdp_callback_on>
    3484:	e3a0000f 	mov	r0, #15
    3488:	e59f1050 	ldr	r1, [pc, #80]	; 34e0 <recording_initialize+0x2cc>
    348c:	ebfffd48 	bl	29b4 <simulation_dma_transfer_done_callback_on>
    3490:	e3a00001 	mov	r0, #1
    3494:	e28dd01c 	add	sp, sp, #28
    3498:	e8bd8ff0 	pop	{r4, r5, r6, r7, r8, r9, sl, fp, pc}
    349c:	004001d8 	.word	0x004001d8
    34a0:	004001e0 	.word	0x004001e0
    34a4:	00400314 	.word	0x00400314
    34a8:	0040030c 	.word	0x0040030c
    34ac:	004001cc 	.word	0x004001cc
    34b0:	004001d4 	.word	0x004001d4
    34b4:	00005509 	.word	0x00005509
    34b8:	004001e4 	.word	0x004001e4
    34bc:	0000551f 	.word	0x0000551f
    34c0:	00400310 	.word	0x00400310
    34c4:	e5007f00 	.word	0xe5007f00
    34c8:	00005519 	.word	0x00005519
    34cc:	0040031c 	.word	0x0040031c
    34d0:	004001e8 	.word	0x004001e8
    34d4:	004001d0 	.word	0x004001d0
    34d8:	00400324 	.word	0x00400324
    34dc:	00002c9c 	.word	0x00002c9c
    34e0:	00002be0 	.word	0x00002be0

000034e4 <recording_do_timestep_update>:
    34e4:	e59f31d8 	ldr	r3, [pc, #472]	; 36c4 <recording_do_timestep_update+0x1e0>
    34e8:	e92d4ff0 	push	{r4, r5, r6, r7, r8, r9, sl, fp, lr}
    34ec:	e5d34000 	ldrb	r4, [r3]
    34f0:	e24dd024 	sub	sp, sp, #36	; 0x24
    34f4:	e3540000 	cmp	r4, #0
    34f8:	1a00006f 	bne	36bc <recording_do_timestep_update+0x1d8>
    34fc:	e59f71c4 	ldr	r7, [pc, #452]	; 36c8 <recording_do_timestep_update+0x1e4>
    3500:	e59f21c4 	ldr	r2, [pc, #452]	; 36cc <recording_do_timestep_update+0x1e8>
    3504:	e5973000 	ldr	r3, [r7]
    3508:	e5922000 	ldr	r2, [r2]
    350c:	e0633000 	rsb	r3, r3, r0
    3510:	e1530002 	cmp	r3, r2
    3514:	9a000068 	bls	36bc <recording_do_timestep_update+0x1d8>
    3518:	e1a08000 	mov	r8, r0
    351c:	e1a05004 	mov	r5, r4
    3520:	e59f31a8 	ldr	r3, [pc, #424]	; 36d0 <recording_do_timestep_update+0x1ec>
    3524:	e5933000 	ldr	r3, [r3]
    3528:	e1540003 	cmp	r4, r3
    352c:	2a000049 	bcs	3658 <recording_do_timestep_update+0x174>
    3530:	e3a06018 	mov	r6, #24
    3534:	e59f3198 	ldr	r3, [pc, #408]	; 36d4 <recording_do_timestep_update+0x1f0>
    3538:	e0020496 	mul	r2, r6, r4
    353c:	e5933000 	ldr	r3, [r3]
    3540:	e58d301c 	str	r3, [sp, #28]
    3544:	e083b002 	add	fp, r3, r2
    3548:	e793a002 	ldr	sl, [r3, r2]
    354c:	e20420ff 	and	r2, r4, #255	; 0xff
    3550:	e1a00002 	mov	r0, r2
    3554:	e58d2018 	str	r2, [sp, #24]
    3558:	ebfffd74 	bl	2b30 <compute_available_space_in_channel>
    355c:	e59d2018 	ldr	r2, [sp, #24]
    3560:	e59d301c 	ldr	r3, [sp, #28]
    3564:	e0060692 	mul	r6, r2, r6
    3568:	e59b9010 	ldr	r9, [fp, #16]
    356c:	e7933006 	ldr	r3, [r3, r6]
    3570:	e3530000 	cmp	r3, #0
    3574:	0a000035 	beq	3650 <recording_do_timestep_update+0x16c>
    3578:	e06a3009 	rsb	r3, sl, r9
    357c:	e0600003 	rsb	r0, r0, r3
    3580:	e59f3150 	ldr	r3, [pc, #336]	; 36d8 <recording_do_timestep_update+0x1f4>
    3584:	e5933000 	ldr	r3, [r3]
    3588:	e1500003 	cmp	r0, r3
    358c:	3a00002f 	bcc	3650 <recording_do_timestep_update+0x16c>
    3590:	e59b6008 	ldr	r6, [fp, #8]
    3594:	e59b300c 	ldr	r3, [fp, #12]
    3598:	e5db2016 	ldrb	r2, [fp, #22]
    359c:	e1530006 	cmp	r3, r6
    35a0:	2a000008 	bcs	35c8 <recording_do_timestep_update+0xe4>
    35a4:	e59f2130 	ldr	r2, [pc, #304]	; 36dc <recording_do_timestep_update+0x1f8>
    35a8:	e0636006 	rsb	r6, r3, r6
    35ac:	e58d6000 	str	r6, [sp]
    35b0:	e1a01005 	mov	r1, r5
    35b4:	e5920000 	ldr	r0, [r2]
    35b8:	e1a02004 	mov	r2, r4
    35bc:	ebfffd74 	bl	2b94 <_create_buffer_message>
    35c0:	e2855001 	add	r5, r5, #1
    35c4:	ea000021 	b	3650 <recording_do_timestep_update+0x16c>
    35c8:	e1560003 	cmp	r6, r3
    35cc:	3a000002 	bcc	35dc <recording_do_timestep_update+0xf8>
    35d0:	e3520001 	cmp	r2, #1
    35d4:	01560003 	cmpeq	r6, r3
    35d8:	1a000010 	bne	3620 <recording_do_timestep_update+0x13c>
    35dc:	e59f20f8 	ldr	r2, [pc, #248]	; 36dc <recording_do_timestep_update+0x1f8>
    35e0:	e0639009 	rsb	r9, r3, r9
    35e4:	e592b000 	ldr	fp, [r2]
    35e8:	e1a01005 	mov	r1, r5
    35ec:	e1a0000b 	mov	r0, fp
    35f0:	e1a02004 	mov	r2, r4
    35f4:	e58d9000 	str	r9, [sp]
    35f8:	e06a6006 	rsb	r6, sl, r6
    35fc:	ebfffd64 	bl	2b94 <_create_buffer_message>
    3600:	e2851001 	add	r1, r5, #1
    3604:	e58d6000 	str	r6, [sp]
    3608:	e1a0000b 	mov	r0, fp
    360c:	e1a02004 	mov	r2, r4
    3610:	e1a0300a 	mov	r3, sl
    3614:	ebfffd5e 	bl	2b94 <_create_buffer_message>
    3618:	e2855002 	add	r5, r5, #2
    361c:	ea00000b 	b	3650 <recording_do_timestep_update+0x16c>
    3620:	e58d3008 	str	r3, [sp, #8]
    3624:	e16f3f12 	clz	r3, r2
    3628:	e1a032a3 	lsr	r3, r3, #5
    362c:	e58d3010 	str	r3, [sp, #16]
    3630:	e58da000 	str	sl, [sp]
    3634:	e58d9004 	str	r9, [sp, #4]
    3638:	e58d600c 	str	r6, [sp, #12]
    363c:	e3a00002 	mov	r0, #2
    3640:	e59f1098 	ldr	r1, [pc, #152]	; 36e0 <recording_do_timestep_update+0x1fc>
    3644:	e3a02016 	mov	r2, #22
    3648:	e1a03004 	mov	r3, r4
    364c:	fa000348 	blx	4374 <io_printf>
    3650:	e2844001 	add	r4, r4, #1
    3654:	eaffffb1 	b	3520 <recording_do_timestep_update+0x3c>
    3658:	e3550000 	cmp	r5, #0
    365c:	0a000015 	beq	36b8 <recording_do_timestep_update+0x1d4>
    3660:	e59f307c 	ldr	r3, [pc, #124]	; 36e4 <recording_do_timestep_update+0x200>
    3664:	e5934000 	ldr	r4, [r3]
    3668:	e59f3078 	ldr	r3, [pc, #120]	; 36e8 <recording_do_timestep_update+0x204>
    366c:	e1c430b0 	strh	r3, [r4]
    3670:	fa0005ff 	blx	4e74 <spin1_get_chip_id>
    3674:	e1c400b2 	strh	r0, [r4, #2]
    3678:	e59f405c 	ldr	r4, [pc, #92]	; 36dc <recording_do_timestep_update+0x1f8>
    367c:	e5946000 	ldr	r6, [r4]
    3680:	fa0005f8 	blx	4e68 <spin1_get_core_id>
    3684:	e59f2060 	ldr	r2, [pc, #96]	; 36ec <recording_do_timestep_update+0x208>
    3688:	e5943000 	ldr	r3, [r4]
    368c:	e5922000 	ldr	r2, [r2]
    3690:	e3a01001 	mov	r1, #1
    3694:	e1850180 	orr	r0, r5, r0, lsl #3
    3698:	e5c60000 	strb	r0, [r6]
    369c:	e5c32001 	strb	r2, [r3, #1]
    36a0:	e3a0300c 	mov	r3, #12
    36a4:	e0050593 	mul	r5, r3, r5
    36a8:	e59f0040 	ldr	r0, [pc, #64]	; 36f0 <recording_do_timestep_update+0x20c>
    36ac:	e2855014 	add	r5, r5, #20
    36b0:	e1c050b4 	strh	r5, [r0, #4]
    36b4:	fa0003d9 	blx	4620 <spin1_send_sdp_msg>
    36b8:	e5878000 	str	r8, [r7]
    36bc:	e28dd024 	add	sp, sp, #36	; 0x24
    36c0:	e8bd8ff0 	pop	{r4, r5, r6, r7, r8, r9, sl, fp, pc}
    36c4:	004001dc 	.word	0x004001dc
    36c8:	00400320 	.word	0x00400320
    36cc:	004001d4 	.word	0x004001d4
    36d0:	004001cc 	.word	0x004001cc
    36d4:	0040031c 	.word	0x0040031c
    36d8:	00400314 	.word	0x00400314
    36dc:	00400324 	.word	0x00400324
    36e0:	00005523 	.word	0x00005523
    36e4:	004001d0 	.word	0x004001d0
    36e8:	00004008 	.word	0x00004008
    36ec:	00400318 	.word	0x00400318
    36f0:	004001e8 	.word	0x004001e8

000036f4 <profiler_init>:
    36f4:	e92d4037 	push	{r0, r1, r2, r4, r5, lr}
    36f8:	e1a04000 	mov	r4, r0
    36fc:	e1a03004 	mov	r3, r4
    3700:	e3a00002 	mov	r0, #2
    3704:	e59f105c 	ldr	r1, [pc, #92]	; 3768 <profiler_init+0x74>
    3708:	e3a02041 	mov	r2, #65	; 0x41
    370c:	fa000318 	blx	4374 <io_printf>
    3710:	e59f2054 	ldr	r2, [pc, #84]	; 376c <profiler_init+0x78>
    3714:	e5943000 	ldr	r3, [r4]
    3718:	e5824000 	str	r4, [r2]
    371c:	e59f204c 	ldr	r2, [pc, #76]	; 3770 <profiler_init+0x7c>
    3720:	e59f504c 	ldr	r5, [pc, #76]	; 3774 <profiler_init+0x80>
    3724:	e2844004 	add	r4, r4, #4
    3728:	e5824000 	str	r4, [r2]
    372c:	e3a00002 	mov	r0, #2
    3730:	e3a02042 	mov	r2, #66	; 0x42
    3734:	e58d4000 	str	r4, [sp]
    3738:	e59f1038 	ldr	r1, [pc, #56]	; 3778 <profiler_init+0x84>
    373c:	e5853000 	str	r3, [r5]
    3740:	fa00030b 	blx	4374 <io_printf>
    3744:	e5953000 	ldr	r3, [r5]
    3748:	e3530000 	cmp	r3, #0
    374c:	13a02082 	movne	r2, #130	; 0x82
    3750:	13a03421 	movne	r3, #553648128	; 0x21000000
    3754:	15832028 	strne	r2, [r3, #40]	; 0x28
    3758:	13a02000 	movne	r2, #0
    375c:	15832020 	strne	r2, [r3, #32]
    3760:	e28dd00c 	add	sp, sp, #12
    3764:	e8bd8030 	pop	{r4, r5, pc}
    3768:	00005500 	.word	0x00005500
    376c:	0040032c 	.word	0x0040032c
    3770:	00400328 	.word	0x00400328
    3774:	00400330 	.word	0x00400330
    3778:	000054fd 	.word	0x000054fd

0000377c <profiler_finalise>:
    377c:	e59f303c 	ldr	r3, [pc, #60]	; 37c0 <profiler_finalise+0x44>
    3780:	e92d4007 	push	{r0, r1, r2, lr}
    3784:	e5932000 	ldr	r2, [r3]
    3788:	e59f3034 	ldr	r3, [pc, #52]	; 37c4 <profiler_finalise+0x48>
    378c:	e3a00002 	mov	r0, #2
    3790:	e5933000 	ldr	r3, [r3]
    3794:	e0623003 	rsb	r3, r2, r3
    3798:	e1a03143 	asr	r3, r3, #2
    379c:	e2431001 	sub	r1, r3, #1
    37a0:	e5821000 	str	r1, [r2]
    37a4:	e1a03013 	lsl	r3, r3, r0
    37a8:	e58d2000 	str	r2, [sp]
    37ac:	e59f1014 	ldr	r1, [pc, #20]	; 37c8 <profiler_finalise+0x4c>
    37b0:	e3a02043 	mov	r2, #67	; 0x43
    37b4:	fa0002ee 	blx	4374 <io_printf>
    37b8:	e28dd00c 	add	sp, sp, #12
    37bc:	e49df004 	pop	{pc}		; (ldr pc, [sp], #4)
    37c0:	0040032c 	.word	0x0040032c
    37c4:	00400328 	.word	0x00400328
    37c8:	000054fd 	.word	0x000054fd

000037cc <circular_buffer_initialize>:
    37cc:	e92d4038 	push	{r3, r4, r5, lr}
    37d0:	e2403001 	sub	r3, r0, #1
    37d4:	e1130000 	tst	r3, r0
    37d8:	e1a04000 	mov	r4, r0
    37dc:	13a03001 	movne	r3, #1
    37e0:	116f4f10 	clzne	r4, r0
    37e4:	e3a01014 	mov	r1, #20
    37e8:	12644020 	rsbne	r4, r4, #32
    37ec:	e3a00001 	mov	r0, #1
    37f0:	11a04413 	lslne	r4, r3, r4
    37f4:	fa00021b 	blx	4068 <sark_alloc>
    37f8:	e2505000 	subs	r5, r0, #0
    37fc:	0a00000d 	beq	3838 <circular_buffer_initialize+0x6c>
    3800:	e3a00001 	mov	r0, #1
    3804:	e1a01104 	lsl	r1, r4, #2
    3808:	fa000216 	blx	4068 <sark_alloc>
    380c:	e3500000 	cmp	r0, #0
    3810:	e5850000 	str	r0, [r5]
    3814:	0a000007 	beq	3838 <circular_buffer_initialize+0x6c>
    3818:	e3a03000 	mov	r3, #0
    381c:	e2444001 	sub	r4, r4, #1
    3820:	e1a00005 	mov	r0, r5
    3824:	e5854004 	str	r4, [r5, #4]
    3828:	e585300c 	str	r3, [r5, #12]
    382c:	e5853008 	str	r3, [r5, #8]
    3830:	e5853010 	str	r3, [r5, #16]
    3834:	e8bd8038 	pop	{r3, r4, r5, pc}
    3838:	e3a00000 	mov	r0, #0
    383c:	e8bd8038 	pop	{r3, r4, r5, pc}

00003840 <rte_handler>:
    3840:	4b01      	ldr	r3, [pc, #4]	; (3848 <rte_handler+0x8>)
    3842:	2208      	movs	r2, #8
    3844:	701a      	strb	r2, [r3, #0]
    3846:	4770      	bx	lr
    3848:	e5007f2b 	.word	0xe5007f2b

0000384c <sark_cpu_state>:
    384c:	4b02      	ldr	r3, [pc, #8]	; (3858 <sark_cpu_state+0xc>)
    384e:	69db      	ldr	r3, [r3, #28]
    3850:	332e      	adds	r3, #46	; 0x2e
    3852:	7018      	strb	r0, [r3, #0]
    3854:	4770      	bx	lr
    3856:	46c0      	nop			; (mov r8, r8)
    3858:	004008b4 	.word	0x004008b4

0000385c <sark_app_lead>:
    385c:	235c      	movs	r3, #92	; 0x5c
    385e:	4a03      	ldr	r2, [pc, #12]	; (386c <sark_app_lead+0x10>)
    3860:	781b      	ldrb	r3, [r3, #0]
    3862:	6812      	ldr	r2, [r2, #0]
    3864:	00db      	lsls	r3, r3, #3
    3866:	18d3      	adds	r3, r2, r3
    3868:	78d8      	ldrb	r0, [r3, #3]
    386a:	4770      	bx	lr
    386c:	e5007fe4 	.word	0xe5007fe4

00003870 <sark_block_init>:
    3870:	b530      	push	{r4, r5, lr}
    3872:	1c0b      	adds	r3, r1, #0
    3874:	1c04      	adds	r4, r0, #0
    3876:	3b01      	subs	r3, #1
    3878:	2b00      	cmp	r3, #0
    387a:	d003      	beq.n	3884 <sark_block_init+0x14>
    387c:	18a5      	adds	r5, r4, r2
    387e:	6025      	str	r5, [r4, #0]
    3880:	1c2c      	adds	r4, r5, #0
    3882:	e7f8      	b.n	3876 <sark_block_init+0x6>
    3884:	3901      	subs	r1, #1
    3886:	434a      	muls	r2, r1
    3888:	1880      	adds	r0, r0, r2
    388a:	6003      	str	r3, [r0, #0]
    388c:	bd30      	pop	{r4, r5, pc}
	...

00003890 <sark_msg_get>:
    3890:	b510      	push	{r4, lr}
    3892:	f7fc ec9a 	blx	1c8 <cpu_int_disable>
    3896:	4a09      	ldr	r2, [pc, #36]	; (38bc <sark_msg_get+0x2c>)
    3898:	6a14      	ldr	r4, [r2, #32]
    389a:	2c00      	cmp	r4, #0
    389c:	d00a      	beq.n	38b4 <sark_msg_get+0x24>
    389e:	6823      	ldr	r3, [r4, #0]
    38a0:	6213      	str	r3, [r2, #32]
    38a2:	8c93      	ldrh	r3, [r2, #36]	; 0x24
    38a4:	8cd1      	ldrh	r1, [r2, #38]	; 0x26
    38a6:	3301      	adds	r3, #1
    38a8:	041b      	lsls	r3, r3, #16
    38aa:	0c1b      	lsrs	r3, r3, #16
    38ac:	8493      	strh	r3, [r2, #36]	; 0x24
    38ae:	4299      	cmp	r1, r3
    38b0:	d200      	bcs.n	38b4 <sark_msg_get+0x24>
    38b2:	84d3      	strh	r3, [r2, #38]	; 0x26
    38b4:	f7fc ec90 	blx	1d8 <cpu_int_restore>
    38b8:	1c20      	adds	r0, r4, #0
    38ba:	bd10      	pop	{r4, pc}
    38bc:	004008b4 	.word	0x004008b4

000038c0 <sark_msg_free>:
    38c0:	b510      	push	{r4, lr}
    38c2:	1c04      	adds	r4, r0, #0
    38c4:	f7fc ec80 	blx	1c8 <cpu_int_disable>
    38c8:	4b04      	ldr	r3, [pc, #16]	; (38dc <sark_msg_free+0x1c>)
    38ca:	6a1a      	ldr	r2, [r3, #32]
    38cc:	6022      	str	r2, [r4, #0]
    38ce:	8c9a      	ldrh	r2, [r3, #36]	; 0x24
    38d0:	621c      	str	r4, [r3, #32]
    38d2:	3a01      	subs	r2, #1
    38d4:	849a      	strh	r2, [r3, #36]	; 0x24
    38d6:	f7fc ec80 	blx	1d8 <cpu_int_restore>
    38da:	bd10      	pop	{r4, pc}
    38dc:	004008b4 	.word	0x004008b4

000038e0 <sark_shmsg_get>:
    38e0:	b510      	push	{r4, lr}
    38e2:	2000      	movs	r0, #0
    38e4:	f7fc ec80 	blx	1e8 <sark_lock_get>
    38e8:	4a09      	ldr	r2, [pc, #36]	; (3910 <sark_shmsg_get+0x30>)
    38ea:	6814      	ldr	r4, [r2, #0]
    38ec:	2c00      	cmp	r4, #0
    38ee:	d00a      	beq.n	3906 <sark_shmsg_get+0x26>
    38f0:	6823      	ldr	r3, [r4, #0]
    38f2:	6013      	str	r3, [r2, #0]
    38f4:	8893      	ldrh	r3, [r2, #4]
    38f6:	88d1      	ldrh	r1, [r2, #6]
    38f8:	3301      	adds	r3, #1
    38fa:	041b      	lsls	r3, r3, #16
    38fc:	0c1b      	lsrs	r3, r3, #16
    38fe:	8093      	strh	r3, [r2, #4]
    3900:	4299      	cmp	r1, r3
    3902:	d200      	bcs.n	3906 <sark_shmsg_get+0x26>
    3904:	80d3      	strh	r3, [r2, #6]
    3906:	2100      	movs	r1, #0
    3908:	f7fc ec80 	blx	20c <sark_lock_free>
    390c:	1c20      	adds	r0, r4, #0
    390e:	bd10      	pop	{r4, pc}
    3910:	e5007f68 	.word	0xe5007f68

00003914 <sark_shmsg_free>:
    3914:	b510      	push	{r4, lr}
    3916:	1c04      	adds	r4, r0, #0
    3918:	2000      	movs	r0, #0
    391a:	f7fc ec66 	blx	1e8 <sark_lock_get>
    391e:	4b05      	ldr	r3, [pc, #20]	; (3934 <sark_shmsg_free+0x20>)
    3920:	2100      	movs	r1, #0
    3922:	681a      	ldr	r2, [r3, #0]
    3924:	6022      	str	r2, [r4, #0]
    3926:	889a      	ldrh	r2, [r3, #4]
    3928:	601c      	str	r4, [r3, #0]
    392a:	3a01      	subs	r2, #1
    392c:	809a      	strh	r2, [r3, #4]
    392e:	f7fc ec6e 	blx	20c <sark_lock_free>
    3932:	bd10      	pop	{r4, pc}
    3934:	e5007f68 	.word	0xe5007f68

00003938 <sark_call_cpp_constructors>:
    3938:	b510      	push	{r4, lr}
    393a:	4c04      	ldr	r4, [pc, #16]	; (394c <sark_call_cpp_constructors+0x14>)
    393c:	4b04      	ldr	r3, [pc, #16]	; (3950 <sark_call_cpp_constructors+0x18>)
    393e:	429c      	cmp	r4, r3
    3940:	d202      	bcs.n	3948 <sark_call_cpp_constructors+0x10>
    3942:	cc08      	ldmia	r4!, {r3}
    3944:	4798      	blx	r3
    3946:	e7f9      	b.n	393c <sark_call_cpp_constructors+0x4>
    3948:	bd10      	pop	{r4, pc}
    394a:	46c0      	nop			; (mov r8, r8)
    394c:	00005438 	.word	0x00005438
    3950:	00005438 	.word	0x00005438

00003954 <sark_init>:
    3954:	b570      	push	{r4, r5, r6, lr}
    3956:	2520      	movs	r5, #32
    3958:	1c04      	adds	r4, r0, #0
    395a:	8c28      	ldrh	r0, [r5, #32]
    395c:	8c6a      	ldrh	r2, [r5, #34]	; 0x22
    395e:	0080      	lsls	r0, r0, #2
    3960:	1a20      	subs	r0, r4, r0
    3962:	21d2      	movs	r1, #210	; 0xd2
    3964:	f7fc ec14 	blx	190 <cpu_init_mode>
    3968:	8caa      	ldrh	r2, [r5, #36]	; 0x24
    396a:	21d1      	movs	r1, #209	; 0xd1
    396c:	f7fc ec10 	blx	190 <cpu_init_mode>
    3970:	2200      	movs	r2, #0
    3972:	21df      	movs	r1, #223	; 0xdf
    3974:	f7fc ec0c 	blx	190 <cpu_init_mode>
    3978:	8ce9      	ldrh	r1, [r5, #38]	; 0x26
    397a:	2658      	movs	r6, #88	; 0x58
    397c:	0889      	lsrs	r1, r1, #2
    397e:	0089      	lsls	r1, r1, #2
    3980:	1a61      	subs	r1, r4, r1
    3982:	4c39      	ldr	r4, [pc, #228]	; (3a68 <sark_init+0x114>)
    3984:	6121      	str	r1, [r4, #16]
    3986:	6ae8      	ldr	r0, [r5, #44]	; 0x2c
    3988:	6160      	str	r0, [r4, #20]
    398a:	f000 fbc9 	bl	4120 <sark_heap_init>
    398e:	4b37      	ldr	r3, [pc, #220]	; (3a6c <sark_init+0x118>)
    3990:	4a37      	ldr	r2, [pc, #220]	; (3a70 <sark_init+0x11c>)
    3992:	681b      	ldr	r3, [r3, #0]
    3994:	4d37      	ldr	r5, [pc, #220]	; (3a74 <sark_init+0x120>)
    3996:	0e1b      	lsrs	r3, r3, #24
    3998:	6063      	str	r3, [r4, #4]
    399a:	189b      	adds	r3, r3, r2
    399c:	2192      	movs	r1, #146	; 0x92
    399e:	0049      	lsls	r1, r1, #1
    39a0:	61a0      	str	r0, [r4, #24]
    39a2:	791b      	ldrb	r3, [r3, #4]
    39a4:	6023      	str	r3, [r4, #0]
    39a6:	8cab      	ldrh	r3, [r5, #36]	; 0x24
    39a8:	8623      	strh	r3, [r4, #48]	; 0x30
    39aa:	4b33      	ldr	r3, [pc, #204]	; (3a78 <sark_init+0x124>)
    39ac:	60a3      	str	r3, [r4, #8]
    39ae:	7830      	ldrb	r0, [r6, #0]
    39b0:	f000 fb5a 	bl	4068 <sark_alloc>
    39b4:	2292      	movs	r2, #146	; 0x92
    39b6:	0052      	lsls	r2, r2, #1
    39b8:	6220      	str	r0, [r4, #32]
    39ba:	7831      	ldrb	r1, [r6, #0]
    39bc:	f7ff ff58 	bl	3870 <sark_block_init>
    39c0:	4b2e      	ldr	r3, [pc, #184]	; (3a7c <sark_init+0x128>)
    39c2:	681a      	ldr	r2, [r3, #0]
    39c4:	231f      	movs	r3, #31
    39c6:	4013      	ands	r3, r2
    39c8:	6862      	ldr	r2, [r4, #4]
    39ca:	429a      	cmp	r2, r3
    39cc:	d035      	beq.n	3a3a <sark_init+0xe6>
    39ce:	6823      	ldr	r3, [r4, #0]
    39d0:	4a2b      	ldr	r2, [pc, #172]	; (3a80 <sark_init+0x12c>)
    39d2:	01d8      	lsls	r0, r3, #7
    39d4:	1880      	adds	r0, r0, r2
    39d6:	6daa      	ldr	r2, [r5, #88]	; 0x58
    39d8:	61e0      	str	r0, [r4, #28]
    39da:	435a      	muls	r2, r3
    39dc:	0093      	lsls	r3, r2, #2
    39de:	6d6a      	ldr	r2, [r5, #84]	; 0x54
    39e0:	2100      	movs	r1, #0
    39e2:	18d3      	adds	r3, r2, r3
    39e4:	2270      	movs	r2, #112	; 0x70
    39e6:	6363      	str	r3, [r4, #52]	; 0x34
    39e8:	f7fc ec24 	blx	234 <sark_word_set>
    39ec:	69e0      	ldr	r0, [r4, #28]
    39ee:	2205      	movs	r2, #5
    39f0:	1c03      	adds	r3, r0, #0
    39f2:	332e      	adds	r3, #46	; 0x2e
    39f4:	701a      	strb	r2, [r3, #0]
    39f6:	6862      	ldr	r2, [r4, #4]
    39f8:	3b01      	subs	r3, #1
    39fa:	701a      	strb	r2, [r3, #0]
    39fc:	235c      	movs	r3, #92	; 0x5c
    39fe:	781a      	ldrb	r2, [r3, #0]
    3a00:	1c03      	adds	r3, r0, #0
    3a02:	332f      	adds	r3, #47	; 0x2f
    3a04:	701a      	strb	r2, [r3, #0]
    3a06:	69eb      	ldr	r3, [r5, #28]
    3a08:	6443      	str	r3, [r0, #68]	; 0x44
    3a0a:	4b1e      	ldr	r3, [pc, #120]	; (3a84 <sark_init+0x130>)
    3a0c:	65c3      	str	r3, [r0, #92]	; 0x5c
    3a0e:	491e      	ldr	r1, [pc, #120]	; (3a88 <sark_init+0x134>)
    3a10:	3048      	adds	r0, #72	; 0x48
    3a12:	f7fc ec06 	blx	220 <sark_str_cpy>
    3a16:	4b1d      	ldr	r3, [pc, #116]	; (3a8c <sark_init+0x138>)
    3a18:	22ff      	movs	r2, #255	; 0xff
    3a1a:	6819      	ldr	r1, [r3, #0]
    3a1c:	0412      	lsls	r2, r2, #16
    3a1e:	23c0      	movs	r3, #192	; 0xc0
    3a20:	400a      	ands	r2, r1
    3a22:	029b      	lsls	r3, r3, #10
    3a24:	429a      	cmp	r2, r3
    3a26:	d105      	bne.n	3a34 <sark_init+0xe0>
    3a28:	23ff      	movs	r3, #255	; 0xff
    3a2a:	4a19      	ldr	r2, [pc, #100]	; (3a90 <sark_init+0x13c>)
    3a2c:	021b      	lsls	r3, r3, #8
    3a2e:	400b      	ands	r3, r1
    3a30:	4293      	cmp	r3, r2
    3a32:	d802      	bhi.n	3a3a <sark_init+0xe6>
    3a34:	2014      	movs	r0, #20
    3a36:	f7fc eb7a 	blx	12c <rt_error>
    3a3a:	f000 fa55 	bl	3ee8 <sark_vic_init>
    3a3e:	2359      	movs	r3, #89	; 0x59
    3a40:	7818      	ldrb	r0, [r3, #0]
    3a42:	2112      	movs	r1, #18
    3a44:	2201      	movs	r2, #1
    3a46:	4b13      	ldr	r3, [pc, #76]	; (3a94 <sark_init+0x140>)
    3a48:	f000 fa76 	bl	3f38 <sark_vic_set>
    3a4c:	2106      	movs	r1, #6
    3a4e:	2201      	movs	r2, #1
    3a50:	2010      	movs	r0, #16
    3a52:	4b11      	ldr	r3, [pc, #68]	; (3a98 <sark_init+0x144>)
    3a54:	f000 fa70 	bl	3f38 <sark_vic_set>
    3a58:	235a      	movs	r3, #90	; 0x5a
    3a5a:	7818      	ldrb	r0, [r3, #0]
    3a5c:	f000 fa14 	bl	3e88 <event_alloc>
    3a60:	f000 fa38 	bl	3ed4 <timer_cancel_init>
    3a64:	201f      	movs	r0, #31
    3a66:	bd70      	pop	{r4, r5, r6, pc}
    3a68:	004008b4 	.word	0x004008b4
    3a6c:	40000014 	.word	0x40000014
    3a70:	e5007f90 	.word	0xe5007f90
    3a74:	e5007f00 	.word	0xe5007f00
    3a78:	deaddead 	.word	0xdeaddead
    3a7c:	e2000034 	.word	0xe2000034
    3a80:	e5007000 	.word	0xe5007000
    3a84:	00030204 	.word	0x00030204
    3a88:	000054c4 	.word	0x000054c4
    3a8c:	e5007ffc 	.word	0xe5007ffc
    3a90:	000001ff 	.word	0x000001ff
    3a94:	00000300 	.word	0x00000300
    3a98:	00003f7c 	.word	0x00003f7c

00003a9c <sark_msg_send>:
    3a9c:	b5f8      	push	{r3, r4, r5, r6, r7, lr}
    3a9e:	1c04      	adds	r4, r0, #0
    3aa0:	1c0f      	adds	r7, r1, #0
    3aa2:	f7ff ff1d 	bl	38e0 <sark_shmsg_get>
    3aa6:	1e06      	subs	r6, r0, #0
    3aa8:	d03b      	beq.n	3b22 <sark_msg_send+0x86>
    3aaa:	1c21      	adds	r1, r4, #0
    3aac:	f7fc ebd4 	blx	258 <sark_msg_cpy>
    3ab0:	4d1c      	ldr	r5, [pc, #112]	; (3b24 <sark_msg_send+0x88>)
    3ab2:	2401      	movs	r4, #1
    3ab4:	69eb      	ldr	r3, [r5, #28]
    3ab6:	1c20      	adds	r0, r4, #0
    3ab8:	635e      	str	r6, [r3, #52]	; 0x34
    3aba:	3339      	adds	r3, #57	; 0x39
    3abc:	701c      	strb	r4, [r3, #0]
    3abe:	f7fc eb94 	blx	1e8 <sark_lock_get>
    3ac2:	4b19      	ldr	r3, [pc, #100]	; (3b28 <sark_msg_send+0x8c>)
    3ac4:	6829      	ldr	r1, [r5, #0]
    3ac6:	681a      	ldr	r2, [r3, #0]
    3ac8:	469c      	mov	ip, r3
    3aca:	1c23      	adds	r3, r4, #0
    3acc:	408b      	lsls	r3, r1
    3ace:	4313      	orrs	r3, r2
    3ad0:	4661      	mov	r1, ip
    3ad2:	600b      	str	r3, [r1, #0]
    3ad4:	2a00      	cmp	r2, #0
    3ad6:	d106      	bne.n	3ae6 <sark_msg_send+0x4a>
    3ad8:	4b14      	ldr	r3, [pc, #80]	; (3b2c <sark_msg_send+0x90>)
    3ada:	781b      	ldrb	r3, [r3, #0]
    3adc:	409c      	lsls	r4, r3
    3ade:	4b14      	ldr	r3, [pc, #80]	; (3b30 <sark_msg_send+0x94>)
    3ae0:	18e4      	adds	r4, r4, r3
    3ae2:	4b14      	ldr	r3, [pc, #80]	; (3b34 <sark_msg_send+0x98>)
    3ae4:	601c      	str	r4, [r3, #0]
    3ae6:	2101      	movs	r1, #1
    3ae8:	f7fc eb90 	blx	20c <sark_lock_free>
    3aec:	4b12      	ldr	r3, [pc, #72]	; (3b38 <sark_msg_send+0x9c>)
    3aee:	69e9      	ldr	r1, [r5, #28]
    3af0:	6818      	ldr	r0, [r3, #0]
    3af2:	1c1c      	adds	r4, r3, #0
    3af4:	1c0a      	adds	r2, r1, #0
    3af6:	3239      	adds	r2, #57	; 0x39
    3af8:	7813      	ldrb	r3, [r2, #0]
    3afa:	2b00      	cmp	r3, #0
    3afc:	d003      	beq.n	3b06 <sark_msg_send+0x6a>
    3afe:	6823      	ldr	r3, [r4, #0]
    3b00:	1a1b      	subs	r3, r3, r0
    3b02:	42bb      	cmp	r3, r7
    3b04:	d9f6      	bls.n	3af4 <sark_msg_send+0x58>
    3b06:	7813      	ldrb	r3, [r2, #0]
    3b08:	2b00      	cmp	r3, #0
    3b0a:	d006      	beq.n	3b1a <sark_msg_send+0x7e>
    3b0c:	2400      	movs	r4, #0
    3b0e:	1c30      	adds	r0, r6, #0
    3b10:	7014      	strb	r4, [r2, #0]
    3b12:	f7ff feff 	bl	3914 <sark_shmsg_free>
    3b16:	1c20      	adds	r0, r4, #0
    3b18:	e003      	b.n	3b22 <sark_msg_send+0x86>
    3b1a:	6aeb      	ldr	r3, [r5, #44]	; 0x2c
    3b1c:	2001      	movs	r0, #1
    3b1e:	3301      	adds	r3, #1
    3b20:	62eb      	str	r3, [r5, #44]	; 0x2c
    3b22:	bdf8      	pop	{r3, r4, r5, r6, r7, pc}
    3b24:	004008b4 	.word	0x004008b4
    3b28:	e5007fec 	.word	0xe5007fec
    3b2c:	e5007fa8 	.word	0xe5007fa8
    3b30:	5ec00000 	.word	0x5ec00000
    3b34:	e2000008 	.word	0xe2000008
    3b38:	e5007f10 	.word	0xe5007f10

00003b3c <sark_cmd_ver>:
    3b3c:	4b0d      	ldr	r3, [pc, #52]	; (3b74 <sark_cmd_ver+0x38>)
    3b3e:	b510      	push	{r4, lr}
    3b40:	685a      	ldr	r2, [r3, #4]
    3b42:	681b      	ldr	r3, [r3, #0]
    3b44:	0212      	lsls	r2, r2, #8
    3b46:	18d2      	adds	r2, r2, r3
    3b48:	4b0b      	ldr	r3, [pc, #44]	; (3b78 <sark_cmd_ver+0x3c>)
    3b4a:	1c04      	adds	r4, r0, #0
    3b4c:	881b      	ldrh	r3, [r3, #0]
    3b4e:	490b      	ldr	r1, [pc, #44]	; (3b7c <sark_cmd_ver+0x40>)
    3b50:	041b      	lsls	r3, r3, #16
    3b52:	18d3      	adds	r3, r2, r3
    3b54:	6143      	str	r3, [r0, #20]
    3b56:	4b0a      	ldr	r3, [pc, #40]	; (3b80 <sark_cmd_ver+0x44>)
    3b58:	6183      	str	r3, [r0, #24]
    3b5a:	4b0a      	ldr	r3, [pc, #40]	; (3b84 <sark_cmd_ver+0x48>)
    3b5c:	681b      	ldr	r3, [r3, #0]
    3b5e:	61c3      	str	r3, [r0, #28]
    3b60:	3020      	adds	r0, #32
    3b62:	f7fc eb5e 	blx	220 <sark_str_cpy>
    3b66:	1c20      	adds	r0, r4, #0
    3b68:	302f      	adds	r0, #47	; 0x2f
    3b6a:	4907      	ldr	r1, [pc, #28]	; (3b88 <sark_cmd_ver+0x4c>)
    3b6c:	f7fc eb58 	blx	220 <sark_str_cpy>
    3b70:	2021      	movs	r0, #33	; 0x21
    3b72:	bd10      	pop	{r4, pc}
    3b74:	004008b4 	.word	0x004008b4
    3b78:	e5007f00 	.word	0xe5007f00
    3b7c:	00005539 	.word	0x00005539
    3b80:	ffff0100 	.word	0xffff0100
    3b84:	000054d4 	.word	0x000054d4
    3b88:	00005548 	.word	0x00005548

00003b8c <sark_cmd_read>:
    3b8c:	6982      	ldr	r2, [r0, #24]
    3b8e:	2380      	movs	r3, #128	; 0x80
    3b90:	b530      	push	{r4, r5, lr}
    3b92:	69c1      	ldr	r1, [r0, #28]
    3b94:	005b      	lsls	r3, r3, #1
    3b96:	429a      	cmp	r2, r3
    3b98:	d801      	bhi.n	3b9e <sark_cmd_read+0x12>
    3b9a:	2902      	cmp	r1, #2
    3b9c:	d903      	bls.n	3ba6 <sark_cmd_read+0x1a>
    3b9e:	2384      	movs	r3, #132	; 0x84
    3ba0:	8203      	strh	r3, [r0, #16]
    3ba2:	2000      	movs	r0, #0
    3ba4:	e025      	b.n	3bf2 <sark_cmd_read+0x66>
    3ba6:	1c03      	adds	r3, r0, #0
    3ba8:	6944      	ldr	r4, [r0, #20]
    3baa:	3314      	adds	r3, #20
    3bac:	2900      	cmp	r1, #0
    3bae:	d108      	bne.n	3bc2 <sark_cmd_read+0x36>
    3bb0:	1898      	adds	r0, r3, r2
    3bb2:	1c19      	adds	r1, r3, #0
    3bb4:	4281      	cmp	r1, r0
    3bb6:	d01b      	beq.n	3bf0 <sark_cmd_read+0x64>
    3bb8:	1acd      	subs	r5, r1, r3
    3bba:	5d2d      	ldrb	r5, [r5, r4]
    3bbc:	700d      	strb	r5, [r1, #0]
    3bbe:	3101      	adds	r1, #1
    3bc0:	e7f8      	b.n	3bb4 <sark_cmd_read+0x28>
    3bc2:	2901      	cmp	r1, #1
    3bc4:	d10a      	bne.n	3bdc <sark_cmd_read+0x50>
    3bc6:	0851      	lsrs	r1, r2, #1
    3bc8:	0049      	lsls	r1, r1, #1
    3bca:	1859      	adds	r1, r3, r1
    3bcc:	1c18      	adds	r0, r3, #0
    3bce:	4288      	cmp	r0, r1
    3bd0:	d00e      	beq.n	3bf0 <sark_cmd_read+0x64>
    3bd2:	1ac5      	subs	r5, r0, r3
    3bd4:	5b2d      	ldrh	r5, [r5, r4]
    3bd6:	8005      	strh	r5, [r0, #0]
    3bd8:	3002      	adds	r0, #2
    3bda:	e7f8      	b.n	3bce <sark_cmd_read+0x42>
    3bdc:	0891      	lsrs	r1, r2, #2
    3bde:	0089      	lsls	r1, r1, #2
    3be0:	1859      	adds	r1, r3, r1
    3be2:	1c18      	adds	r0, r3, #0
    3be4:	4288      	cmp	r0, r1
    3be6:	d003      	beq.n	3bf0 <sark_cmd_read+0x64>
    3be8:	1ac5      	subs	r5, r0, r3
    3bea:	592d      	ldr	r5, [r5, r4]
    3bec:	c020      	stmia	r0!, {r5}
    3bee:	e7f9      	b.n	3be4 <sark_cmd_read+0x58>
    3bf0:	1c10      	adds	r0, r2, #0
    3bf2:	bd30      	pop	{r4, r5, pc}

00003bf4 <sark_cmd_write>:
    3bf4:	6983      	ldr	r3, [r0, #24]
    3bf6:	2280      	movs	r2, #128	; 0x80
    3bf8:	b530      	push	{r4, r5, lr}
    3bfa:	69c1      	ldr	r1, [r0, #28]
    3bfc:	0052      	lsls	r2, r2, #1
    3bfe:	4293      	cmp	r3, r2
    3c00:	d801      	bhi.n	3c06 <sark_cmd_write+0x12>
    3c02:	2902      	cmp	r1, #2
    3c04:	d902      	bls.n	3c0c <sark_cmd_write+0x18>
    3c06:	2384      	movs	r3, #132	; 0x84
    3c08:	8203      	strh	r3, [r0, #16]
    3c0a:	e024      	b.n	3c56 <sark_cmd_write+0x62>
    3c0c:	6942      	ldr	r2, [r0, #20]
    3c0e:	3020      	adds	r0, #32
    3c10:	2900      	cmp	r1, #0
    3c12:	d108      	bne.n	3c26 <sark_cmd_write+0x32>
    3c14:	18c3      	adds	r3, r0, r3
    3c16:	1c01      	adds	r1, r0, #0
    3c18:	4299      	cmp	r1, r3
    3c1a:	d01c      	beq.n	3c56 <sark_cmd_write+0x62>
    3c1c:	780d      	ldrb	r5, [r1, #0]
    3c1e:	1a0c      	subs	r4, r1, r0
    3c20:	54a5      	strb	r5, [r4, r2]
    3c22:	3101      	adds	r1, #1
    3c24:	e7f8      	b.n	3c18 <sark_cmd_write+0x24>
    3c26:	2901      	cmp	r1, #1
    3c28:	d10a      	bne.n	3c40 <sark_cmd_write+0x4c>
    3c2a:	085b      	lsrs	r3, r3, #1
    3c2c:	005b      	lsls	r3, r3, #1
    3c2e:	18c3      	adds	r3, r0, r3
    3c30:	1c01      	adds	r1, r0, #0
    3c32:	4299      	cmp	r1, r3
    3c34:	d00f      	beq.n	3c56 <sark_cmd_write+0x62>
    3c36:	880d      	ldrh	r5, [r1, #0]
    3c38:	1a0c      	subs	r4, r1, r0
    3c3a:	52a5      	strh	r5, [r4, r2]
    3c3c:	3102      	adds	r1, #2
    3c3e:	e7f8      	b.n	3c32 <sark_cmd_write+0x3e>
    3c40:	089b      	lsrs	r3, r3, #2
    3c42:	009b      	lsls	r3, r3, #2
    3c44:	18c3      	adds	r3, r0, r3
    3c46:	1c01      	adds	r1, r0, #0
    3c48:	4299      	cmp	r1, r3
    3c4a:	d004      	beq.n	3c56 <sark_cmd_write+0x62>
    3c4c:	1a0c      	subs	r4, r1, r0
    3c4e:	680d      	ldr	r5, [r1, #0]
    3c50:	50a5      	str	r5, [r4, r2]
    3c52:	3104      	adds	r1, #4
    3c54:	e7f8      	b.n	3c48 <sark_cmd_write+0x54>
    3c56:	2000      	movs	r0, #0
    3c58:	bd30      	pop	{r4, r5, pc}

00003c5a <sark_cmd_fill>:
    3c5a:	b508      	push	{r3, lr}
    3c5c:	1c03      	adds	r3, r0, #0
    3c5e:	3314      	adds	r3, #20
    3c60:	cb07      	ldmia	r3!, {r0, r1, r2}
    3c62:	f7fc eae8 	blx	234 <sark_word_set>
    3c66:	2000      	movs	r0, #0
    3c68:	bd08      	pop	{r3, pc}

00003c6a <sark_wait>:
    3c6a:	b508      	push	{r3, lr}
    3c6c:	235d      	movs	r3, #93	; 0x5d
    3c6e:	781b      	ldrb	r3, [r3, #0]
    3c70:	07db      	lsls	r3, r3, #31
    3c72:	d502      	bpl.n	3c7a <sark_wait+0x10>
    3c74:	f7fc eab4 	blx	1e0 <cpu_wfi>
    3c78:	e7f8      	b.n	3c6c <sark_wait+0x2>
    3c7a:	bd08      	pop	{r3, pc}

00003c7c <sark_int>:
    3c7c:	b570      	push	{r4, r5, r6, lr}
    3c7e:	4d54      	ldr	r5, [pc, #336]	; (3dd0 <sark_int+0x154>)
    3c80:	2301      	movs	r3, #1
    3c82:	686a      	ldr	r2, [r5, #4]
    3c84:	4093      	lsls	r3, r2
    3c86:	4a53      	ldr	r2, [pc, #332]	; (3dd4 <sark_int+0x158>)
    3c88:	189b      	adds	r3, r3, r2
    3c8a:	4a53      	ldr	r2, [pc, #332]	; (3dd8 <sark_int+0x15c>)
    3c8c:	6013      	str	r3, [r2, #0]
    3c8e:	69ea      	ldr	r2, [r5, #28]
    3c90:	1c11      	adds	r1, r2, #0
    3c92:	3138      	adds	r1, #56	; 0x38
    3c94:	780b      	ldrb	r3, [r1, #0]
    3c96:	2b00      	cmp	r3, #0
    3c98:	d100      	bne.n	3c9c <sark_int+0x20>
    3c9a:	e097      	b.n	3dcc <sark_int+0x150>
    3c9c:	6b16      	ldr	r6, [r2, #48]	; 0x30
    3c9e:	2b02      	cmp	r3, #2
    3ca0:	d100      	bne.n	3ca4 <sark_int+0x28>
    3ca2:	6310      	str	r0, [r2, #48]	; 0x30
    3ca4:	2200      	movs	r2, #0
    3ca6:	700a      	strb	r2, [r1, #0]
    3ca8:	2b03      	cmp	r3, #3
    3caa:	d124      	bne.n	3cf6 <sark_int+0x7a>
    3cac:	1ef0      	subs	r0, r6, #3
    3cae:	280a      	cmp	r0, #10
    3cb0:	d900      	bls.n	3cb4 <sark_int+0x38>
    3cb2:	e08b      	b.n	3dcc <sark_int+0x150>
    3cb4:	f7fc fb56 	bl	364 <__gnu_thumb1_case_uqi>
    3cb8:	068a8a10 	.word	0x068a8a10
    3cbc:	161b0c08 	.word	0x161b0c08
    3cc0:	1616      	.short	0x1616
    3cc2:	16          	.byte	0x16
    3cc3:	00          	.byte	0x00
    3cc4:	2001      	movs	r0, #1
    3cc6:	e000      	b.n	3cca <sark_int+0x4e>
    3cc8:	2000      	movs	r0, #0
    3cca:	f000 f8bb 	bl	3e44 <event_pause>
    3cce:	e07d      	b.n	3dcc <sark_int+0x150>
    3cd0:	20ff      	movs	r0, #255	; 0xff
    3cd2:	f000 f8cd 	bl	3e70 <event_stop>
    3cd6:	e079      	b.n	3dcc <sark_int+0x150>
    3cd8:	225d      	movs	r2, #93	; 0x5d
    3cda:	7813      	ldrb	r3, [r2, #0]
    3cdc:	2101      	movs	r1, #1
    3cde:	438b      	bics	r3, r1
    3ce0:	7013      	strb	r3, [r2, #0]
    3ce2:	e073      	b.n	3dcc <sark_int+0x150>
    3ce4:	4b3d      	ldr	r3, [pc, #244]	; (3ddc <sark_int+0x160>)
    3ce6:	2280      	movs	r2, #128	; 0x80
    3ce8:	62de      	str	r6, [r3, #44]	; 0x2c
    3cea:	0592      	lsls	r2, r2, #22
    3cec:	e000      	b.n	3cf0 <sark_int+0x74>
    3cee:	2210      	movs	r2, #16
    3cf0:	4b3b      	ldr	r3, [pc, #236]	; (3de0 <sark_int+0x164>)
    3cf2:	601a      	str	r2, [r3, #0]
    3cf4:	e06a      	b.n	3dcc <sark_int+0x150>
    3cf6:	2b01      	cmp	r3, #1
    3cf8:	d168      	bne.n	3dcc <sark_int+0x150>
    3cfa:	f7ff fdc9 	bl	3890 <sark_msg_get>
    3cfe:	1e04      	subs	r4, r0, #0
    3d00:	d061      	beq.n	3dc6 <sark_int+0x14a>
    3d02:	1c31      	adds	r1, r6, #0
    3d04:	f7fc eaa8 	blx	258 <sark_msg_cpy>
    3d08:	1c30      	adds	r0, r6, #0
    3d0a:	f7ff fe03 	bl	3914 <sark_shmsg_free>
    3d0e:	6aab      	ldr	r3, [r5, #40]	; 0x28
    3d10:	3301      	adds	r3, #1
    3d12:	62ab      	str	r3, [r5, #40]	; 0x28
    3d14:	7aa5      	ldrb	r5, [r4, #10]
    3d16:	231f      	movs	r3, #31
    3d18:	1c28      	adds	r0, r5, #0
    3d1a:	4398      	bics	r0, r3
    3d1c:	d130      	bne.n	3d80 <sark_int+0x104>
    3d1e:	88a3      	ldrh	r3, [r4, #4]
    3d20:	2b17      	cmp	r3, #23
    3d22:	d801      	bhi.n	3d28 <sark_int+0xac>
    3d24:	2381      	movs	r3, #129	; 0x81
    3d26:	e01b      	b.n	3d60 <sark_int+0xe4>
    3d28:	8a23      	ldrh	r3, [r4, #16]
    3d2a:	2280      	movs	r2, #128	; 0x80
    3d2c:	8222      	strh	r2, [r4, #16]
    3d2e:	2b00      	cmp	r3, #0
    3d30:	d103      	bne.n	3d3a <sark_int+0xbe>
    3d32:	1c20      	adds	r0, r4, #0
    3d34:	f7ff ff02 	bl	3b3c <sark_cmd_ver>
    3d38:	e013      	b.n	3d62 <sark_int+0xe6>
    3d3a:	2b02      	cmp	r3, #2
    3d3c:	d103      	bne.n	3d46 <sark_int+0xca>
    3d3e:	1c20      	adds	r0, r4, #0
    3d40:	f7ff ff24 	bl	3b8c <sark_cmd_read>
    3d44:	e00d      	b.n	3d62 <sark_int+0xe6>
    3d46:	2b03      	cmp	r3, #3
    3d48:	d103      	bne.n	3d52 <sark_int+0xd6>
    3d4a:	1c20      	adds	r0, r4, #0
    3d4c:	f7ff ff52 	bl	3bf4 <sark_cmd_write>
    3d50:	e007      	b.n	3d62 <sark_int+0xe6>
    3d52:	2b05      	cmp	r3, #5
    3d54:	d103      	bne.n	3d5e <sark_int+0xe2>
    3d56:	1c20      	adds	r0, r4, #0
    3d58:	f7ff ff7f 	bl	3c5a <sark_cmd_fill>
    3d5c:	e001      	b.n	3d62 <sark_int+0xe6>
    3d5e:	2383      	movs	r3, #131	; 0x83
    3d60:	8223      	strh	r3, [r4, #16]
    3d62:	7aa2      	ldrb	r2, [r4, #10]
    3d64:	7ae1      	ldrb	r1, [r4, #11]
    3d66:	89a3      	ldrh	r3, [r4, #12]
    3d68:	300c      	adds	r0, #12
    3d6a:	72e2      	strb	r2, [r4, #11]
    3d6c:	89e2      	ldrh	r2, [r4, #14]
    3d6e:	80a0      	strh	r0, [r4, #4]
    3d70:	72a1      	strb	r1, [r4, #10]
    3d72:	81a2      	strh	r2, [r4, #12]
    3d74:	81e3      	strh	r3, [r4, #14]
    3d76:	1c20      	adds	r0, r4, #0
    3d78:	210a      	movs	r1, #10
    3d7a:	f7ff fe8f 	bl	3a9c <sark_msg_send>
    3d7e:	e01e      	b.n	3dbe <sark_int+0x142>
    3d80:	235b      	movs	r3, #91	; 0x5b
    3d82:	781b      	ldrb	r3, [r3, #0]
    3d84:	2b00      	cmp	r3, #0
    3d86:	d00f      	beq.n	3da8 <sark_int+0x12c>
    3d88:	4b16      	ldr	r3, [pc, #88]	; (3de4 <sark_int+0x168>)
    3d8a:	699b      	ldr	r3, [r3, #24]
    3d8c:	2b00      	cmp	r3, #0
    3d8e:	d016      	beq.n	3dbe <sark_int+0x142>
    3d90:	f7fc ea1a 	blx	1c8 <cpu_int_disable>
    3d94:	096a      	lsrs	r2, r5, #5
    3d96:	1c21      	adds	r1, r4, #0
    3d98:	1c06      	adds	r6, r0, #0
    3d9a:	2003      	movs	r0, #3
    3d9c:	f001 f876 	bl	4e8c <schedule_sysmode>
    3da0:	1c30      	adds	r0, r6, #0
    3da2:	f7fc ea1a 	blx	1d8 <cpu_int_restore>
    3da6:	e011      	b.n	3dcc <sark_int+0x150>
    3da8:	4b0f      	ldr	r3, [pc, #60]	; (3de8 <sark_int+0x16c>)
    3daa:	681a      	ldr	r2, [r3, #0]
    3dac:	2380      	movs	r3, #128	; 0x80
    3dae:	055b      	lsls	r3, r3, #21
    3db0:	421a      	tst	r2, r3
    3db2:	d004      	beq.n	3dbe <sark_int+0x142>
    3db4:	4a09      	ldr	r2, [pc, #36]	; (3ddc <sark_int+0x160>)
    3db6:	6294      	str	r4, [r2, #40]	; 0x28
    3db8:	4a09      	ldr	r2, [pc, #36]	; (3de0 <sark_int+0x164>)
    3dba:	6013      	str	r3, [r2, #0]
    3dbc:	e006      	b.n	3dcc <sark_int+0x150>
    3dbe:	1c20      	adds	r0, r4, #0
    3dc0:	f7ff fd7e 	bl	38c0 <sark_msg_free>
    3dc4:	e002      	b.n	3dcc <sark_int+0x150>
    3dc6:	1c30      	adds	r0, r6, #0
    3dc8:	f7ff fda4 	bl	3914 <sark_shmsg_free>
    3dcc:	bd70      	pop	{r4, r5, r6, pc}
    3dce:	46c0      	nop			; (mov r8, r8)
    3dd0:	004008b4 	.word	0x004008b4
    3dd4:	5ec00000 	.word	0x5ec00000
    3dd8:	e200000c 	.word	0xe200000c
    3ddc:	004008f0 	.word	0x004008f0
    3de0:	1f000018 	.word	0x1f000018
    3de4:	00400b34 	.word	0x00400b34
    3de8:	1f000010 	.word	0x1f000010

00003dec <event_wait>:
    3dec:	4b12      	ldr	r3, [pc, #72]	; (3e38 <event_wait+0x4c>)
    3dee:	b570      	push	{r4, r5, r6, lr}
    3df0:	681b      	ldr	r3, [r3, #0]
    3df2:	4c12      	ldr	r4, [pc, #72]	; (3e3c <event_wait+0x50>)
    3df4:	2501      	movs	r5, #1
    3df6:	409d      	lsls	r5, r3
    3df8:	7ea3      	ldrb	r3, [r4, #26]
    3dfa:	4e11      	ldr	r6, [pc, #68]	; (3e40 <event_wait+0x54>)
    3dfc:	2b00      	cmp	r3, #0
    3dfe:	d011      	beq.n	3e24 <event_wait+0x38>
    3e00:	2009      	movs	r0, #9
    3e02:	f7ff fd23 	bl	384c <sark_cpu_state>
    3e06:	6833      	ldr	r3, [r6, #0]
    3e08:	1c2a      	adds	r2, r5, #0
    3e0a:	439a      	bics	r2, r3
    3e0c:	d002      	beq.n	3e14 <event_wait+0x28>
    3e0e:	f7fc e9e8 	blx	1e0 <cpu_wfi>
    3e12:	e7f8      	b.n	3e06 <event_wait+0x1a>
    3e14:	7ea3      	ldrb	r3, [r4, #26]
    3e16:	2201      	movs	r2, #1
    3e18:	4053      	eors	r3, r2
    3e1a:	2007      	movs	r0, #7
    3e1c:	76a3      	strb	r3, [r4, #26]
    3e1e:	f7ff fd15 	bl	384c <sark_cpu_state>
    3e22:	bd70      	pop	{r4, r5, r6, pc}
    3e24:	2008      	movs	r0, #8
    3e26:	f7ff fd11 	bl	384c <sark_cpu_state>
    3e2a:	6833      	ldr	r3, [r6, #0]
    3e2c:	422b      	tst	r3, r5
    3e2e:	d0f1      	beq.n	3e14 <event_wait+0x28>
    3e30:	f7fc e9d6 	blx	1e0 <cpu_wfi>
    3e34:	e7f9      	b.n	3e2a <event_wait+0x3e>
    3e36:	46c0      	nop			; (mov r8, r8)
    3e38:	004008b4 	.word	0x004008b4
    3e3c:	004008f0 	.word	0x004008f0
    3e40:	e2000058 	.word	0xe2000058

00003e44 <event_pause>:
    3e44:	b538      	push	{r3, r4, r5, lr}
    3e46:	1e05      	subs	r5, r0, #0
    3e48:	4c08      	ldr	r4, [pc, #32]	; (3e6c <event_pause+0x28>)
    3e4a:	d003      	beq.n	3e54 <event_pause+0x10>
    3e4c:	2301      	movs	r3, #1
    3e4e:	7623      	strb	r3, [r4, #24]
    3e50:	200a      	movs	r0, #10
    3e52:	e001      	b.n	3e58 <event_pause+0x14>
    3e54:	7620      	strb	r0, [r4, #24]
    3e56:	2007      	movs	r0, #7
    3e58:	f7ff fcf8 	bl	384c <sark_cpu_state>
    3e5c:	6b23      	ldr	r3, [r4, #48]	; 0x30
    3e5e:	2b00      	cmp	r3, #0
    3e60:	d002      	beq.n	3e68 <event_pause+0x24>
    3e62:	1c28      	adds	r0, r5, #0
    3e64:	6b61      	ldr	r1, [r4, #52]	; 0x34
    3e66:	4798      	blx	r3
    3e68:	bd38      	pop	{r3, r4, r5, pc}
    3e6a:	46c0      	nop			; (mov r8, r8)
    3e6c:	004008f0 	.word	0x004008f0

00003e70 <event_stop>:
    3e70:	4b03      	ldr	r3, [pc, #12]	; (3e80 <event_stop+0x10>)
    3e72:	2202      	movs	r2, #2
    3e74:	761a      	strb	r2, [r3, #24]
    3e76:	4a03      	ldr	r2, [pc, #12]	; (3e84 <event_stop+0x14>)
    3e78:	6cd9      	ldr	r1, [r3, #76]	; 0x4c
    3e7a:	6011      	str	r1, [r2, #0]
    3e7c:	6398      	str	r0, [r3, #56]	; 0x38
    3e7e:	4770      	bx	lr
    3e80:	004008f0 	.word	0x004008f0
    3e84:	1f000014 	.word	0x1f000014

00003e88 <event_alloc>:
    3e88:	b570      	push	{r4, r5, r6, lr}
    3e8a:	211c      	movs	r1, #28
    3e8c:	1c05      	adds	r5, r0, #0
    3e8e:	f000 f8eb 	bl	4068 <sark_alloc>
    3e92:	1e04      	subs	r4, r0, #0
    3e94:	d015      	beq.n	3ec2 <event_alloc+0x3a>
    3e96:	1c29      	adds	r1, r5, #0
    3e98:	221c      	movs	r2, #28
    3e9a:	f7ff fce9 	bl	3870 <sark_block_init>
    3e9e:	1c23      	adds	r3, r4, #0
    3ea0:	1c06      	adds	r6, r0, #0
    3ea2:	3d01      	subs	r5, #1
    3ea4:	d303      	bcc.n	3eae <event_alloc+0x26>
    3ea6:	2200      	movs	r2, #0
    3ea8:	761a      	strb	r2, [r3, #24]
    3eaa:	681b      	ldr	r3, [r3, #0]
    3eac:	e7f9      	b.n	3ea2 <event_alloc+0x1a>
    3eae:	f7fc e98c 	blx	1c8 <cpu_int_disable>
    3eb2:	4b07      	ldr	r3, [pc, #28]	; (3ed0 <event_alloc+0x48>)
    3eb4:	681a      	ldr	r2, [r3, #0]
    3eb6:	6032      	str	r2, [r6, #0]
    3eb8:	601c      	str	r4, [r3, #0]
    3eba:	f7fc e98e 	blx	1d8 <cpu_int_restore>
    3ebe:	2001      	movs	r0, #1
    3ec0:	e004      	b.n	3ecc <event_alloc+0x44>
    3ec2:	4a03      	ldr	r2, [pc, #12]	; (3ed0 <event_alloc+0x48>)
    3ec4:	2308      	movs	r3, #8
    3ec6:	6951      	ldr	r1, [r2, #20]
    3ec8:	430b      	orrs	r3, r1
    3eca:	6153      	str	r3, [r2, #20]
    3ecc:	bd70      	pop	{r4, r5, r6, pc}
    3ece:	46c0      	nop			; (mov r8, r8)
    3ed0:	004008f0 	.word	0x004008f0

00003ed4 <timer_cancel_init>:
    3ed4:	4b03      	ldr	r3, [pc, #12]	; (3ee4 <timer_cancel_init+0x10>)
    3ed6:	2200      	movs	r2, #0
    3ed8:	605a      	str	r2, [r3, #4]
    3eda:	615a      	str	r2, [r3, #20]
    3edc:	611a      	str	r2, [r3, #16]
    3ede:	3201      	adds	r2, #1
    3ee0:	761a      	strb	r2, [r3, #24]
    3ee2:	4770      	bx	lr
    3ee4:	00400898 	.word	0x00400898

00003ee8 <sark_vic_init>:
    3ee8:	4b0b      	ldr	r3, [pc, #44]	; (3f18 <sark_vic_init+0x30>)
    3eea:	2201      	movs	r2, #1
    3eec:	4252      	negs	r2, r2
    3eee:	601a      	str	r2, [r3, #0]
    3ef0:	4a0a      	ldr	r2, [pc, #40]	; (3f1c <sark_vic_init+0x34>)
    3ef2:	2300      	movs	r3, #0
    3ef4:	6013      	str	r3, [r2, #0]
    3ef6:	4a0a      	ldr	r2, [pc, #40]	; (3f20 <sark_vic_init+0x38>)
    3ef8:	6013      	str	r3, [r2, #0]
    3efa:	4b0a      	ldr	r3, [pc, #40]	; (3f24 <sark_vic_init+0x3c>)
    3efc:	2200      	movs	r2, #0
    3efe:	601a      	str	r2, [r3, #0]
    3f00:	1e5a      	subs	r2, r3, #1
    3f02:	3aff      	subs	r2, #255	; 0xff
    3f04:	4908      	ldr	r1, [pc, #32]	; (3f28 <sark_vic_init+0x40>)
    3f06:	6011      	str	r1, [r2, #0]
    3f08:	4a08      	ldr	r2, [pc, #32]	; (3f2c <sark_vic_init+0x44>)
    3f0a:	3304      	adds	r3, #4
    3f0c:	4293      	cmp	r3, r2
    3f0e:	d1f5      	bne.n	3efc <sark_vic_init+0x14>
    3f10:	4b07      	ldr	r3, [pc, #28]	; (3f30 <sark_vic_init+0x48>)
    3f12:	4a08      	ldr	r2, [pc, #32]	; (3f34 <sark_vic_init+0x4c>)
    3f14:	601a      	str	r2, [r3, #0]
    3f16:	4770      	bx	lr
    3f18:	1f000014 	.word	0x1f000014
    3f1c:	1f00000c 	.word	0x1f00000c
    3f20:	1f000030 	.word	0x1f000030
    3f24:	1f000200 	.word	0x1f000200
    3f28:	00000108 	.word	0x00000108
    3f2c:	1f000240 	.word	0x1f000240
    3f30:	1f000034 	.word	0x1f000034
    3f34:	00000330 	.word	0x00000330

00003f38 <sark_vic_set>:
    3f38:	b510      	push	{r4, lr}
    3f3a:	2810      	cmp	r0, #16
    3f3c:	d104      	bne.n	3f48 <sark_vic_set+0x10>
    3f3e:	62c3      	str	r3, [r0, #44]	; 0x2c
    3f40:	2301      	movs	r3, #1
    3f42:	408b      	lsls	r3, r1
    3f44:	480a      	ldr	r0, [pc, #40]	; (3f70 <sark_vic_set+0x38>)
    3f46:	e009      	b.n	3f5c <sark_vic_set+0x24>
    3f48:	3040      	adds	r0, #64	; 0x40
    3f4a:	24f8      	movs	r4, #248	; 0xf8
    3f4c:	0080      	lsls	r0, r0, #2
    3f4e:	0564      	lsls	r4, r4, #21
    3f50:	1904      	adds	r4, r0, r4
    3f52:	6023      	str	r3, [r4, #0]
    3f54:	4b07      	ldr	r3, [pc, #28]	; (3f74 <sark_vic_set+0x3c>)
    3f56:	18c0      	adds	r0, r0, r3
    3f58:	2320      	movs	r3, #32
    3f5a:	430b      	orrs	r3, r1
    3f5c:	6003      	str	r3, [r0, #0]
    3f5e:	2a00      	cmp	r2, #0
    3f60:	d004      	beq.n	3f6c <sark_vic_set+0x34>
    3f62:	2301      	movs	r3, #1
    3f64:	408b      	lsls	r3, r1
    3f66:	1c19      	adds	r1, r3, #0
    3f68:	4b03      	ldr	r3, [pc, #12]	; (3f78 <sark_vic_set+0x40>)
    3f6a:	6019      	str	r1, [r3, #0]
    3f6c:	bd10      	pop	{r4, pc}
    3f6e:	46c0      	nop			; (mov r8, r8)
    3f70:	1f00000c 	.word	0x1f00000c
    3f74:	1f000100 	.word	0x1f000100
    3f78:	1f000010 	.word	0x1f000010

00003f7c <sark_fiq_han>:
    3f7c:	e92d000c 	push	{r2, r3}
    3f80:	e59f2018 	ldr	r2, [pc, #24]	; 3fa0 <sark_fiq_han+0x24>
    3f84:	e3a03202 	mov	r3, #536870912	; 0x20000000
    3f88:	e5933014 	ldr	r3, [r3, #20]
    3f8c:	e5923038 	ldr	r3, [r2, #56]	; 0x38
    3f90:	e2833001 	add	r3, r3, #1
    3f94:	e5823038 	str	r3, [r2, #56]	; 0x38
    3f98:	e8bd000c 	pop	{r2, r3}
    3f9c:	e25ef004 	subs	pc, lr, #4
    3fa0:	004008b4 	.word	0x004008b4

00003fa4 <sark_xalloc>:
    3fa4:	b5f7      	push	{r0, r1, r2, r4, r5, r6, r7, lr}
    3fa6:	2900      	cmp	r1, #0
    3fa8:	d058      	beq.n	405c <sark_xalloc+0xb8>
    3faa:	2aff      	cmp	r2, #255	; 0xff
    3fac:	d856      	bhi.n	405c <sark_xalloc+0xb8>
    3fae:	0a1d      	lsrs	r5, r3, #8
    3fb0:	079c      	lsls	r4, r3, #30
    3fb2:	d401      	bmi.n	3fb8 <sark_xalloc+0x14>
    3fb4:	245c      	movs	r4, #92	; 0x5c
    3fb6:	7825      	ldrb	r5, [r4, #0]
    3fb8:	022d      	lsls	r5, r5, #8
    3fba:	18ad      	adds	r5, r5, r2
    3fbc:	2a00      	cmp	r2, #0
    3fbe:	d005      	beq.n	3fcc <sark_xalloc+0x28>
    3fc0:	4c27      	ldr	r4, [pc, #156]	; (4060 <sark_xalloc+0xbc>)
    3fc2:	00ae      	lsls	r6, r5, #2
    3fc4:	6824      	ldr	r4, [r4, #0]
    3fc6:	5934      	ldr	r4, [r6, r4]
    3fc8:	2c00      	cmp	r4, #0
    3fca:	d147      	bne.n	405c <sark_xalloc+0xb8>
    3fcc:	9201      	str	r2, [sp, #4]
    3fce:	3103      	adds	r1, #3
    3fd0:	2203      	movs	r2, #3
    3fd2:	4391      	bics	r1, r2
    3fd4:	3108      	adds	r1, #8
    3fd6:	2701      	movs	r7, #1
    3fd8:	1c06      	adds	r6, r0, #0
    3fda:	9100      	str	r1, [sp, #0]
    3fdc:	401f      	ands	r7, r3
    3fde:	d003      	beq.n	3fe8 <sark_xalloc+0x44>
    3fe0:	2006      	movs	r0, #6
    3fe2:	f7fc e902 	blx	1e8 <sark_lock_get>
    3fe6:	4684      	mov	ip, r0
    3fe8:	6834      	ldr	r4, [r6, #0]
    3fea:	2200      	movs	r2, #0
    3fec:	2c00      	cmp	r4, #0
    3fee:	d02f      	beq.n	4050 <sark_xalloc+0xac>
    3ff0:	9b00      	ldr	r3, [sp, #0]
    3ff2:	6821      	ldr	r1, [r4, #0]
    3ff4:	18e3      	adds	r3, r4, r3
    3ff6:	42a3      	cmp	r3, r4
    3ff8:	d92a      	bls.n	4050 <sark_xalloc+0xac>
    3ffa:	428b      	cmp	r3, r1
    3ffc:	d902      	bls.n	4004 <sark_xalloc+0x60>
    3ffe:	1c22      	adds	r2, r4, #0
    4000:	6864      	ldr	r4, [r4, #4]
    4002:	e7f3      	b.n	3fec <sark_xalloc+0x48>
    4004:	1c18      	adds	r0, r3, #0
    4006:	3008      	adds	r0, #8
    4008:	4281      	cmp	r1, r0
    400a:	d904      	bls.n	4016 <sark_xalloc+0x72>
    400c:	6019      	str	r1, [r3, #0]
    400e:	6861      	ldr	r1, [r4, #4]
    4010:	6023      	str	r3, [r4, #0]
    4012:	6059      	str	r1, [r3, #4]
    4014:	6063      	str	r3, [r4, #4]
    4016:	6863      	ldr	r3, [r4, #4]
    4018:	2a00      	cmp	r2, #0
    401a:	d001      	beq.n	4020 <sark_xalloc+0x7c>
    401c:	6053      	str	r3, [r2, #4]
    401e:	e000      	b.n	4022 <sark_xalloc+0x7e>
    4020:	6033      	str	r3, [r6, #0]
    4022:	68f3      	ldr	r3, [r6, #12]
    4024:	9a00      	ldr	r2, [sp, #0]
    4026:	1a99      	subs	r1, r3, r2
    4028:	60f1      	str	r1, [r6, #12]
    402a:	2f00      	cmp	r7, #0
    402c:	d003      	beq.n	4036 <sark_xalloc+0x92>
    402e:	4660      	mov	r0, ip
    4030:	2106      	movs	r1, #6
    4032:	f7fc e8ec 	blx	20c <sark_lock_free>
    4036:	4b0b      	ldr	r3, [pc, #44]	; (4064 <sark_xalloc+0xc0>)
    4038:	1c20      	adds	r0, r4, #0
    403a:	18eb      	adds	r3, r5, r3
    403c:	6063      	str	r3, [r4, #4]
    403e:	9b01      	ldr	r3, [sp, #4]
    4040:	3008      	adds	r0, #8
    4042:	2b00      	cmp	r3, #0
    4044:	d00b      	beq.n	405e <sark_xalloc+0xba>
    4046:	4b06      	ldr	r3, [pc, #24]	; (4060 <sark_xalloc+0xbc>)
    4048:	00ad      	lsls	r5, r5, #2
    404a:	681b      	ldr	r3, [r3, #0]
    404c:	50e8      	str	r0, [r5, r3]
    404e:	e006      	b.n	405e <sark_xalloc+0xba>
    4050:	2f00      	cmp	r7, #0
    4052:	d003      	beq.n	405c <sark_xalloc+0xb8>
    4054:	4660      	mov	r0, ip
    4056:	2106      	movs	r1, #6
    4058:	f7fc e8d8 	blx	20c <sark_lock_free>
    405c:	2000      	movs	r0, #0
    405e:	bdfe      	pop	{r1, r2, r3, r4, r5, r6, r7, pc}
    4060:	e5007fdc 	.word	0xe5007fdc
    4064:	ffff0000 	.word	0xffff0000

00004068 <sark_alloc>:
    4068:	b508      	push	{r3, lr}
    406a:	4b04      	ldr	r3, [pc, #16]	; (407c <sark_alloc+0x14>)
    406c:	2200      	movs	r2, #0
    406e:	4341      	muls	r1, r0
    4070:	6998      	ldr	r0, [r3, #24]
    4072:	1c13      	adds	r3, r2, #0
    4074:	f7ff ff96 	bl	3fa4 <sark_xalloc>
    4078:	bd08      	pop	{r3, pc}
    407a:	46c0      	nop			; (mov r8, r8)
    407c:	004008b4 	.word	0x004008b4

00004080 <sark_xfree>:
    4080:	b5f7      	push	{r0, r1, r2, r4, r5, r6, r7, lr}
    4082:	1c06      	adds	r6, r0, #0
    4084:	1c0c      	adds	r4, r1, #0
    4086:	1c15      	adds	r5, r2, #0
    4088:	2900      	cmp	r1, #0
    408a:	d102      	bne.n	4092 <sark_xfree+0x12>
    408c:	2010      	movs	r0, #16
    408e:	f7fc e84e 	blx	12c <rt_error>
    4092:	2301      	movs	r3, #1
    4094:	401d      	ands	r5, r3
    4096:	d003      	beq.n	40a0 <sark_xfree+0x20>
    4098:	2006      	movs	r0, #6
    409a:	f7fc e8a6 	blx	1e8 <sark_lock_get>
    409e:	9001      	str	r0, [sp, #4]
    40a0:	1c21      	adds	r1, r4, #0
    40a2:	3908      	subs	r1, #8
    40a4:	684a      	ldr	r2, [r1, #4]
    40a6:	6833      	ldr	r3, [r6, #0]
    40a8:	0610      	lsls	r0, r2, #24
    40aa:	0e00      	lsrs	r0, r0, #24
    40ac:	d006      	beq.n	40bc <sark_xfree+0x3c>
    40ae:	481b      	ldr	r0, [pc, #108]	; (411c <sark_xfree+0x9c>)
    40b0:	0412      	lsls	r2, r2, #16
    40b2:	0c12      	lsrs	r2, r2, #16
    40b4:	6800      	ldr	r0, [r0, #0]
    40b6:	0092      	lsls	r2, r2, #2
    40b8:	2700      	movs	r7, #0
    40ba:	5017      	str	r7, [r2, r0]
    40bc:	3c08      	subs	r4, #8
    40be:	6820      	ldr	r0, [r4, #0]
    40c0:	68f7      	ldr	r7, [r6, #12]
    40c2:	1a42      	subs	r2, r0, r1
    40c4:	18ba      	adds	r2, r7, r2
    40c6:	60f2      	str	r2, [r6, #12]
    40c8:	2200      	movs	r2, #0
    40ca:	2b00      	cmp	r3, #0
    40cc:	d004      	beq.n	40d8 <sark_xfree+0x58>
    40ce:	4299      	cmp	r1, r3
    40d0:	d302      	bcc.n	40d8 <sark_xfree+0x58>
    40d2:	1c1a      	adds	r2, r3, #0
    40d4:	685b      	ldr	r3, [r3, #4]
    40d6:	e7f8      	b.n	40ca <sark_xfree+0x4a>
    40d8:	6063      	str	r3, [r4, #4]
    40da:	2a00      	cmp	r2, #0
    40dc:	d009      	beq.n	40f2 <sark_xfree+0x72>
    40de:	6051      	str	r1, [r2, #4]
    40e0:	2b00      	cmp	r3, #0
    40e2:	d00a      	beq.n	40fa <sark_xfree+0x7a>
    40e4:	4298      	cmp	r0, r3
    40e6:	d108      	bne.n	40fa <sark_xfree+0x7a>
    40e8:	6803      	ldr	r3, [r0, #0]
    40ea:	6023      	str	r3, [r4, #0]
    40ec:	6843      	ldr	r3, [r0, #4]
    40ee:	6063      	str	r3, [r4, #4]
    40f0:	e003      	b.n	40fa <sark_xfree+0x7a>
    40f2:	6031      	str	r1, [r6, #0]
    40f4:	2b00      	cmp	r3, #0
    40f6:	d1f5      	bne.n	40e4 <sark_xfree+0x64>
    40f8:	e008      	b.n	410c <sark_xfree+0x8c>
    40fa:	2a00      	cmp	r2, #0
    40fc:	d006      	beq.n	410c <sark_xfree+0x8c>
    40fe:	6813      	ldr	r3, [r2, #0]
    4100:	428b      	cmp	r3, r1
    4102:	d103      	bne.n	410c <sark_xfree+0x8c>
    4104:	6823      	ldr	r3, [r4, #0]
    4106:	6013      	str	r3, [r2, #0]
    4108:	6863      	ldr	r3, [r4, #4]
    410a:	6053      	str	r3, [r2, #4]
    410c:	2d00      	cmp	r5, #0
    410e:	d003      	beq.n	4118 <sark_xfree+0x98>
    4110:	9801      	ldr	r0, [sp, #4]
    4112:	2106      	movs	r1, #6
    4114:	f7fc e87a 	blx	20c <sark_lock_free>
    4118:	bdf7      	pop	{r0, r1, r2, r4, r5, r6, r7, pc}
    411a:	46c0      	nop			; (mov r8, r8)
    411c:	e5007fdc 	.word	0xe5007fdc

00004120 <sark_heap_init>:
    4120:	1c03      	adds	r3, r0, #0
    4122:	3908      	subs	r1, #8
    4124:	3310      	adds	r3, #16
    4126:	6043      	str	r3, [r0, #4]
    4128:	6003      	str	r3, [r0, #0]
    412a:	1acb      	subs	r3, r1, r3
    412c:	3b08      	subs	r3, #8
    412e:	60c3      	str	r3, [r0, #12]
    4130:	2300      	movs	r3, #0
    4132:	6101      	str	r1, [r0, #16]
    4134:	6081      	str	r1, [r0, #8]
    4136:	600b      	str	r3, [r1, #0]
    4138:	6143      	str	r3, [r0, #20]
    413a:	604b      	str	r3, [r1, #4]
    413c:	4770      	bx	lr
	...

00004140 <io_buf_init>:
    4140:	b538      	push	{r3, r4, r5, lr}
    4142:	4d0c      	ldr	r5, [pc, #48]	; (4174 <io_buf_init+0x34>)
    4144:	4b0c      	ldr	r3, [pc, #48]	; (4178 <io_buf_init+0x38>)
    4146:	6d29      	ldr	r1, [r5, #80]	; 0x50
    4148:	6818      	ldr	r0, [r3, #0]
    414a:	3110      	adds	r1, #16
    414c:	2200      	movs	r2, #0
    414e:	2301      	movs	r3, #1
    4150:	f7ff ff28 	bl	3fa4 <sark_xalloc>
    4154:	1e04      	subs	r4, r0, #0
    4156:	d102      	bne.n	415e <io_buf_init+0x1e>
    4158:	200e      	movs	r0, #14
    415a:	f7fb efe8 	blx	12c <rt_error>
    415e:	69eb      	ldr	r3, [r5, #28]
    4160:	6063      	str	r3, [r4, #4]
    4162:	4a06      	ldr	r2, [pc, #24]	; (417c <io_buf_init+0x3c>)
    4164:	8b2b      	ldrh	r3, [r5, #24]
    4166:	60a3      	str	r3, [r4, #8]
    4168:	2300      	movs	r3, #0
    416a:	1c20      	adds	r0, r4, #0
    416c:	6023      	str	r3, [r4, #0]
    416e:	6013      	str	r3, [r2, #0]
    4170:	60e3      	str	r3, [r4, #12]
    4172:	bd38      	pop	{r3, r4, r5, pc}
    4174:	e5007f00 	.word	0xe5007f00
    4178:	e5007fd0 	.word	0xe5007fd0
    417c:	0040033c 	.word	0x0040033c

00004180 <sark_io_buf_reset>:
    4180:	b538      	push	{r3, r4, r5, lr}
    4182:	f7fc e822 	blx	1c8 <cpu_int_disable>
    4186:	4b0c      	ldr	r3, [pc, #48]	; (41b8 <sark_io_buf_reset+0x38>)
    4188:	4a0c      	ldr	r2, [pc, #48]	; (41bc <sark_io_buf_reset+0x3c>)
    418a:	69db      	ldr	r3, [r3, #28]
    418c:	6d9b      	ldr	r3, [r3, #88]	; 0x58
    418e:	6013      	str	r3, [r2, #0]
    4190:	2200      	movs	r2, #0
    4192:	681c      	ldr	r4, [r3, #0]
    4194:	60da      	str	r2, [r3, #12]
    4196:	601a      	str	r2, [r3, #0]
    4198:	4b09      	ldr	r3, [pc, #36]	; (41c0 <sark_io_buf_reset+0x40>)
    419a:	601a      	str	r2, [r3, #0]
    419c:	f7fc e81c 	blx	1d8 <cpu_int_restore>
    41a0:	2c00      	cmp	r4, #0
    41a2:	d008      	beq.n	41b6 <sark_io_buf_reset+0x36>
    41a4:	4b07      	ldr	r3, [pc, #28]	; (41c4 <sark_io_buf_reset+0x44>)
    41a6:	6825      	ldr	r5, [r4, #0]
    41a8:	1c21      	adds	r1, r4, #0
    41aa:	6818      	ldr	r0, [r3, #0]
    41ac:	2201      	movs	r2, #1
    41ae:	f7ff ff67 	bl	4080 <sark_xfree>
    41b2:	1c2c      	adds	r4, r5, #0
    41b4:	e7f4      	b.n	41a0 <sark_io_buf_reset+0x20>
    41b6:	bd38      	pop	{r3, r4, r5, pc}
    41b8:	004008b4 	.word	0x004008b4
    41bc:	00400338 	.word	0x00400338
    41c0:	0040033c 	.word	0x0040033c
    41c4:	e5007fd0 	.word	0xe5007fd0

000041c8 <io_put_char>:
    41c8:	b570      	push	{r4, r5, r6, lr}
    41ca:	1c0d      	adds	r5, r1, #0
    41cc:	2803      	cmp	r0, #3
    41ce:	d907      	bls.n	41e0 <io_put_char+0x18>
    41d0:	4932      	ldr	r1, [pc, #200]	; (429c <io_put_char+0xd4>)
    41d2:	680a      	ldr	r2, [r1, #0]
    41d4:	1c53      	adds	r3, r2, #1
    41d6:	5485      	strb	r5, [r0, r2]
    41d8:	2200      	movs	r2, #0
    41da:	600b      	str	r3, [r1, #0]
    41dc:	54c2      	strb	r2, [r0, r3]
    41de:	e05c      	b.n	429a <io_put_char+0xd2>
    41e0:	2800      	cmp	r0, #0
    41e2:	d136      	bne.n	4252 <io_put_char+0x8a>
    41e4:	4e2e      	ldr	r6, [pc, #184]	; (42a0 <io_put_char+0xd8>)
    41e6:	6833      	ldr	r3, [r6, #0]
    41e8:	2b00      	cmp	r3, #0
    41ea:	d11c      	bne.n	4226 <io_put_char+0x5e>
    41ec:	2192      	movs	r1, #146	; 0x92
    41ee:	3001      	adds	r0, #1
    41f0:	0049      	lsls	r1, r1, #1
    41f2:	f7ff ff39 	bl	4068 <sark_alloc>
    41f6:	1e04      	subs	r4, r0, #0
    41f8:	d102      	bne.n	4200 <io_put_char+0x38>
    41fa:	200e      	movs	r0, #14
    41fc:	f7fb ef96 	blx	12c <rt_error>
    4200:	2307      	movs	r3, #7
    4202:	7223      	strb	r3, [r4, #8]
    4204:	2300      	movs	r3, #0
    4206:	7263      	strb	r3, [r4, #9]
    4208:	33ff      	adds	r3, #255	; 0xff
    420a:	72a3      	strb	r3, [r4, #10]
    420c:	4b25      	ldr	r3, [pc, #148]	; (42a4 <io_put_char+0xdc>)
    420e:	889a      	ldrh	r2, [r3, #4]
    4210:	81a2      	strh	r2, [r4, #12]
    4212:	4a25      	ldr	r2, [pc, #148]	; (42a8 <io_put_char+0xe0>)
    4214:	6812      	ldr	r2, [r2, #0]
    4216:	72e2      	strb	r2, [r4, #11]
    4218:	881b      	ldrh	r3, [r3, #0]
    421a:	81e3      	strh	r3, [r4, #14]
    421c:	2340      	movs	r3, #64	; 0x40
    421e:	8223      	strh	r3, [r4, #16]
    4220:	3b34      	subs	r3, #52	; 0x34
    4222:	80a3      	strh	r3, [r4, #4]
    4224:	6034      	str	r4, [r6, #0]
    4226:	6830      	ldr	r0, [r6, #0]
    4228:	8883      	ldrh	r3, [r0, #4]
    422a:	1c5a      	adds	r2, r3, #1
    422c:	18c3      	adds	r3, r0, r3
    422e:	8082      	strh	r2, [r0, #4]
    4230:	721d      	strb	r5, [r3, #8]
    4232:	2d0a      	cmp	r5, #10
    4234:	d006      	beq.n	4244 <io_put_char+0x7c>
    4236:	2d00      	cmp	r5, #0
    4238:	d004      	beq.n	4244 <io_put_char+0x7c>
    423a:	8882      	ldrh	r2, [r0, #4]
    423c:	2386      	movs	r3, #134	; 0x86
    423e:	005b      	lsls	r3, r3, #1
    4240:	429a      	cmp	r2, r3
    4242:	d12a      	bne.n	429a <io_put_char+0xd2>
    4244:	210a      	movs	r1, #10
    4246:	f7ff fc29 	bl	3a9c <sark_msg_send>
    424a:	6833      	ldr	r3, [r6, #0]
    424c:	220c      	movs	r2, #12
    424e:	809a      	strh	r2, [r3, #4]
    4250:	e023      	b.n	429a <io_put_char+0xd2>
    4252:	2802      	cmp	r0, #2
    4254:	d121      	bne.n	429a <io_put_char+0xd2>
    4256:	4c15      	ldr	r4, [pc, #84]	; (42ac <io_put_char+0xe4>)
    4258:	6823      	ldr	r3, [r4, #0]
    425a:	2b00      	cmp	r3, #0
    425c:	d105      	bne.n	426a <io_put_char+0xa2>
    425e:	4b12      	ldr	r3, [pc, #72]	; (42a8 <io_put_char+0xe0>)
    4260:	69de      	ldr	r6, [r3, #28]
    4262:	f7ff ff6d 	bl	4140 <io_buf_init>
    4266:	65b0      	str	r0, [r6, #88]	; 0x58
    4268:	6020      	str	r0, [r4, #0]
    426a:	4911      	ldr	r1, [pc, #68]	; (42b0 <io_put_char+0xe8>)
    426c:	6826      	ldr	r6, [r4, #0]
    426e:	680a      	ldr	r2, [r1, #0]
    4270:	1c53      	adds	r3, r2, #1
    4272:	18b2      	adds	r2, r6, r2
    4274:	7415      	strb	r5, [r2, #16]
    4276:	4a0b      	ldr	r2, [pc, #44]	; (42a4 <io_put_char+0xdc>)
    4278:	600b      	str	r3, [r1, #0]
    427a:	6d12      	ldr	r2, [r2, #80]	; 0x50
    427c:	4293      	cmp	r3, r2
    427e:	d107      	bne.n	4290 <io_put_char+0xc8>
    4280:	60f3      	str	r3, [r6, #12]
    4282:	f7ff ff5d 	bl	4140 <io_buf_init>
    4286:	6823      	ldr	r3, [r4, #0]
    4288:	6030      	str	r0, [r6, #0]
    428a:	681b      	ldr	r3, [r3, #0]
    428c:	6023      	str	r3, [r4, #0]
    428e:	e004      	b.n	429a <io_put_char+0xd2>
    4290:	2d0a      	cmp	r5, #10
    4292:	d001      	beq.n	4298 <io_put_char+0xd0>
    4294:	2d00      	cmp	r5, #0
    4296:	d100      	bne.n	429a <io_put_char+0xd2>
    4298:	60f3      	str	r3, [r6, #12]
    429a:	bd70      	pop	{r4, r5, r6, pc}
    429c:	00400340 	.word	0x00400340
    42a0:	00400334 	.word	0x00400334
    42a4:	e5007f00 	.word	0xe5007f00
    42a8:	004008b4 	.word	0x004008b4
    42ac:	00400338 	.word	0x00400338
    42b0:	0040033c 	.word	0x0040033c

000042b4 <io_put_fixed>:
    42b4:	b5f0      	push	{r4, r5, r6, r7, lr}
    42b6:	b08d      	sub	sp, #52	; 0x34
    42b8:	1c05      	adds	r5, r0, #0
    42ba:	9100      	str	r1, [sp, #0]
    42bc:	9201      	str	r2, [sp, #4]
    42be:	2b0c      	cmp	r3, #12
    42c0:	d900      	bls.n	42c4 <io_put_fixed+0x10>
    42c2:	230c      	movs	r3, #12
    42c4:	9a00      	ldr	r2, [sp, #0]
    42c6:	1c1c      	adds	r4, r3, #0
    42c8:	2000      	movs	r0, #0
    42ca:	0412      	lsls	r2, r2, #16
    42cc:	260a      	movs	r6, #10
    42ce:	0c12      	lsrs	r2, r2, #16
    42d0:	4372      	muls	r2, r6
    42d2:	4298      	cmp	r0, r3
    42d4:	d009      	beq.n	42ea <io_put_fixed+0x36>
    42d6:	3001      	adds	r0, #1
    42d8:	4247      	negs	r7, r0
    42da:	46bc      	mov	ip, r7
    42dc:	ae05      	add	r6, sp, #20
    42de:	0c17      	lsrs	r7, r2, #16
    42e0:	18f6      	adds	r6, r6, r3
    42e2:	3730      	adds	r7, #48	; 0x30
    42e4:	4661      	mov	r1, ip
    42e6:	5477      	strb	r7, [r6, r1]
    42e8:	e7ef      	b.n	42ca <io_put_fixed+0x16>
    42ea:	2004      	movs	r0, #4
    42ec:	0c12      	lsrs	r2, r2, #16
    42ee:	4290      	cmp	r0, r2
    42f0:	4192      	sbcs	r2, r2
    42f2:	4252      	negs	r2, r2
    42f4:	2000      	movs	r0, #0
    42f6:	ae05      	add	r6, sp, #20
    42f8:	2a00      	cmp	r2, #0
    42fa:	d00e      	beq.n	431a <io_put_fixed+0x66>
    42fc:	4298      	cmp	r0, r3
    42fe:	d00b      	beq.n	4318 <io_put_fixed+0x64>
    4300:	5c32      	ldrb	r2, [r6, r0]
    4302:	2a38      	cmp	r2, #56	; 0x38
    4304:	d903      	bls.n	430e <io_put_fixed+0x5a>
    4306:	2230      	movs	r2, #48	; 0x30
    4308:	5432      	strb	r2, [r6, r0]
    430a:	3a2f      	subs	r2, #47	; 0x2f
    430c:	e002      	b.n	4314 <io_put_fixed+0x60>
    430e:	3201      	adds	r2, #1
    4310:	5432      	strb	r2, [r6, r0]
    4312:	2200      	movs	r2, #0
    4314:	3001      	adds	r0, #1
    4316:	e7ee      	b.n	42f6 <io_put_fixed+0x42>
    4318:	2201      	movs	r2, #1
    431a:	2b00      	cmp	r3, #0
    431c:	d002      	beq.n	4324 <io_put_fixed+0x70>
    431e:	202e      	movs	r0, #46	; 0x2e
    4320:	1c5c      	adds	r4, r3, #1
    4322:	54f0      	strb	r0, [r6, r3]
    4324:	9b00      	ldr	r3, [sp, #0]
    4326:	0c19      	lsrs	r1, r3, #16
    4328:	1851      	adds	r1, r2, r1
    432a:	a803      	add	r0, sp, #12
    432c:	f7fb efd0 	blx	2d0 <sark_div10>
    4330:	9b04      	ldr	r3, [sp, #16]
    4332:	3401      	adds	r4, #1
    4334:	1e61      	subs	r1, r4, #1
    4336:	3330      	adds	r3, #48	; 0x30
    4338:	5473      	strb	r3, [r6, r1]
    433a:	9903      	ldr	r1, [sp, #12]
    433c:	1c22      	adds	r2, r4, #0
    433e:	2900      	cmp	r1, #0
    4340:	d1f3      	bne.n	432a <io_put_fixed+0x76>
    4342:	9b13      	ldr	r3, [sp, #76]	; 0x4c
    4344:	2b00      	cmp	r3, #0
    4346:	d002      	beq.n	434e <io_put_fixed+0x9a>
    4348:	232d      	movs	r3, #45	; 0x2d
    434a:	3401      	adds	r4, #1
    434c:	54b3      	strb	r3, [r6, r2]
    434e:	9f01      	ldr	r7, [sp, #4]
    4350:	1c63      	adds	r3, r4, #1
    4352:	429f      	cmp	r7, r3
    4354:	d905      	bls.n	4362 <io_put_fixed+0xae>
    4356:	1c28      	adds	r0, r5, #0
    4358:	9912      	ldr	r1, [sp, #72]	; 0x48
    435a:	f7ff ff35 	bl	41c8 <io_put_char>
    435e:	3f01      	subs	r7, #1
    4360:	e7f6      	b.n	4350 <io_put_fixed+0x9c>
    4362:	3c01      	subs	r4, #1
    4364:	5d31      	ldrb	r1, [r6, r4]
    4366:	1c28      	adds	r0, r5, #0
    4368:	f7ff ff2e 	bl	41c8 <io_put_char>
    436c:	2c00      	cmp	r4, #0
    436e:	d1f8      	bne.n	4362 <io_put_fixed+0xae>
    4370:	b00d      	add	sp, #52	; 0x34
    4372:	bdf0      	pop	{r4, r5, r6, r7, pc}

00004374 <io_printf>:
    4374:	b40e      	push	{r1, r2, r3}
    4376:	b5f0      	push	{r4, r5, r6, r7, lr}
    4378:	b08c      	sub	sp, #48	; 0x30
    437a:	2803      	cmp	r0, #3
    437c:	d100      	bne.n	4380 <io_printf+0xc>
    437e:	e140      	b.n	4602 <io_printf+0x28e>
    4380:	d903      	bls.n	438a <io_printf+0x16>
    4382:	4aa2      	ldr	r2, [pc, #648]	; (460c <io_printf+0x298>)
    4384:	2300      	movs	r3, #0
    4386:	7003      	strb	r3, [r0, #0]
    4388:	6013      	str	r3, [r2, #0]
    438a:	ab12      	add	r3, sp, #72	; 0x48
    438c:	1c05      	adds	r5, r0, #0
    438e:	9305      	str	r3, [sp, #20]
    4390:	9b11      	ldr	r3, [sp, #68]	; 0x44
    4392:	7819      	ldrb	r1, [r3, #0]
    4394:	2900      	cmp	r1, #0
    4396:	d100      	bne.n	439a <io_printf+0x26>
    4398:	e133      	b.n	4602 <io_printf+0x28e>
    439a:	2925      	cmp	r1, #37	; 0x25
    439c:	d002      	beq.n	43a4 <io_printf+0x30>
    439e:	3301      	adds	r3, #1
    43a0:	9311      	str	r3, [sp, #68]	; 0x44
    43a2:	e12c      	b.n	45fe <io_printf+0x28a>
    43a4:	9b11      	ldr	r3, [sp, #68]	; 0x44
    43a6:	7859      	ldrb	r1, [r3, #1]
    43a8:	1c9a      	adds	r2, r3, #2
    43aa:	2900      	cmp	r1, #0
    43ac:	d100      	bne.n	43b0 <io_printf+0x3c>
    43ae:	e128      	b.n	4602 <io_printf+0x28e>
    43b0:	2320      	movs	r3, #32
    43b2:	9303      	str	r3, [sp, #12]
    43b4:	2930      	cmp	r1, #48	; 0x30
    43b6:	d100      	bne.n	43ba <io_printf+0x46>
    43b8:	9103      	str	r1, [sp, #12]
    43ba:	2400      	movs	r4, #0
    43bc:	1c0b      	adds	r3, r1, #0
    43be:	3b30      	subs	r3, #48	; 0x30
    43c0:	9211      	str	r2, [sp, #68]	; 0x44
    43c2:	2b09      	cmp	r3, #9
    43c4:	d809      	bhi.n	43da <io_printf+0x66>
    43c6:	230a      	movs	r3, #10
    43c8:	435c      	muls	r4, r3
    43ca:	3201      	adds	r2, #1
    43cc:	1e53      	subs	r3, r2, #1
    43ce:	1864      	adds	r4, r4, r1
    43d0:	7819      	ldrb	r1, [r3, #0]
    43d2:	3c30      	subs	r4, #48	; 0x30
    43d4:	2900      	cmp	r1, #0
    43d6:	d1f1      	bne.n	43bc <io_printf+0x48>
    43d8:	e113      	b.n	4602 <io_printf+0x28e>
    43da:	2306      	movs	r3, #6
    43dc:	292e      	cmp	r1, #46	; 0x2e
    43de:	d112      	bne.n	4406 <io_printf+0x92>
    43e0:	7811      	ldrb	r1, [r2, #0]
    43e2:	2300      	movs	r3, #0
    43e4:	3201      	adds	r2, #1
    43e6:	1c08      	adds	r0, r1, #0
    43e8:	3830      	subs	r0, #48	; 0x30
    43ea:	9211      	str	r2, [sp, #68]	; 0x44
    43ec:	2809      	cmp	r0, #9
    43ee:	d807      	bhi.n	4400 <io_printf+0x8c>
    43f0:	200a      	movs	r0, #10
    43f2:	4343      	muls	r3, r0
    43f4:	1859      	adds	r1, r3, r1
    43f6:	1c0b      	adds	r3, r1, #0
    43f8:	3b30      	subs	r3, #48	; 0x30
    43fa:	7811      	ldrb	r1, [r2, #0]
    43fc:	3201      	adds	r2, #1
    43fe:	e7f2      	b.n	43e6 <io_printf+0x72>
    4400:	2900      	cmp	r1, #0
    4402:	d100      	bne.n	4406 <io_printf+0x92>
    4404:	e0fd      	b.n	4602 <io_printf+0x28e>
    4406:	296b      	cmp	r1, #107	; 0x6b
    4408:	d100      	bne.n	440c <io_printf+0x98>
    440a:	e0b3      	b.n	4574 <io_printf+0x200>
    440c:	d80f      	bhi.n	442e <io_printf+0xba>
    440e:	2963      	cmp	r1, #99	; 0x63
    4410:	d02b      	beq.n	446a <io_printf+0xf6>
    4412:	d806      	bhi.n	4422 <io_printf+0xae>
    4414:	294b      	cmp	r1, #75	; 0x4b
    4416:	d100      	bne.n	441a <io_printf+0xa6>
    4418:	e0a2      	b.n	4560 <io_printf+0x1ec>
    441a:	2952      	cmp	r1, #82	; 0x52
    441c:	d100      	bne.n	4420 <io_printf+0xac>
    441e:	e09f      	b.n	4560 <io_printf+0x1ec>
    4420:	e0ed      	b.n	45fe <io_printf+0x28a>
    4422:	2964      	cmp	r1, #100	; 0x64
    4424:	d040      	beq.n	44a8 <io_printf+0x134>
    4426:	2966      	cmp	r1, #102	; 0x66
    4428:	d100      	bne.n	442c <io_printf+0xb8>
    442a:	e099      	b.n	4560 <io_printf+0x1ec>
    442c:	e0e7      	b.n	45fe <io_printf+0x28a>
    442e:	2975      	cmp	r1, #117	; 0x75
    4430:	d06f      	beq.n	4512 <io_printf+0x19e>
    4432:	d80b      	bhi.n	444c <io_printf+0xd8>
    4434:	2972      	cmp	r1, #114	; 0x72
    4436:	d100      	bne.n	443a <io_printf+0xc6>
    4438:	e09c      	b.n	4574 <io_printf+0x200>
    443a:	2973      	cmp	r1, #115	; 0x73
    443c:	d000      	beq.n	4440 <io_printf+0xcc>
    443e:	e0de      	b.n	45fe <io_printf+0x28a>
    4440:	9b05      	ldr	r3, [sp, #20]
    4442:	681e      	ldr	r6, [r3, #0]
    4444:	1d1a      	adds	r2, r3, #4
    4446:	9205      	str	r2, [sp, #20]
    4448:	1c33      	adds	r3, r6, #0
    444a:	e016      	b.n	447a <io_printf+0x106>
    444c:	2978      	cmp	r1, #120	; 0x78
    444e:	d100      	bne.n	4452 <io_printf+0xde>
    4450:	e0a1      	b.n	4596 <io_printf+0x222>
    4452:	297a      	cmp	r1, #122	; 0x7a
    4454:	d000      	beq.n	4458 <io_printf+0xe4>
    4456:	e0d2      	b.n	45fe <io_printf+0x28a>
    4458:	9b05      	ldr	r3, [sp, #20]
    445a:	1e66      	subs	r6, r4, #1
    445c:	1d1a      	adds	r2, r3, #4
    445e:	681f      	ldr	r7, [r3, #0]
    4460:	4b6b      	ldr	r3, [pc, #428]	; (4610 <io_printf+0x29c>)
    4462:	9205      	str	r2, [sp, #20]
    4464:	18e4      	adds	r4, r4, r3
    4466:	00a4      	lsls	r4, r4, #2
    4468:	e0ba      	b.n	45e0 <io_printf+0x26c>
    446a:	9b05      	ldr	r3, [sp, #20]
    446c:	1c28      	adds	r0, r5, #0
    446e:	6819      	ldr	r1, [r3, #0]
    4470:	1d1a      	adds	r2, r3, #4
    4472:	9205      	str	r2, [sp, #20]
    4474:	f7ff fea8 	bl	41c8 <io_put_char>
    4478:	e78a      	b.n	4390 <io_printf+0x1c>
    447a:	1b9f      	subs	r7, r3, r6
    447c:	3301      	adds	r3, #1
    447e:	1e5a      	subs	r2, r3, #1
    4480:	7812      	ldrb	r2, [r2, #0]
    4482:	2a00      	cmp	r2, #0
    4484:	d1f9      	bne.n	447a <io_printf+0x106>
    4486:	42bc      	cmp	r4, r7
    4488:	dd05      	ble.n	4496 <io_printf+0x122>
    448a:	1c28      	adds	r0, r5, #0
    448c:	2120      	movs	r1, #32
    448e:	f7ff fe9b 	bl	41c8 <io_put_char>
    4492:	3c01      	subs	r4, #1
    4494:	e7f7      	b.n	4486 <io_printf+0x112>
    4496:	7831      	ldrb	r1, [r6, #0]
    4498:	2900      	cmp	r1, #0
    449a:	d100      	bne.n	449e <io_printf+0x12a>
    449c:	e778      	b.n	4390 <io_printf+0x1c>
    449e:	1c28      	adds	r0, r5, #0
    44a0:	3601      	adds	r6, #1
    44a2:	f7ff fe91 	bl	41c8 <io_put_char>
    44a6:	e7f6      	b.n	4496 <io_printf+0x122>
    44a8:	9b05      	ldr	r3, [sp, #20]
    44aa:	6819      	ldr	r1, [r3, #0]
    44ac:	1d1a      	adds	r2, r3, #4
    44ae:	2300      	movs	r3, #0
    44b0:	9205      	str	r2, [sp, #20]
    44b2:	9303      	str	r3, [sp, #12]
    44b4:	4299      	cmp	r1, r3
    44b6:	da02      	bge.n	44be <io_printf+0x14a>
    44b8:	332d      	adds	r3, #45	; 0x2d
    44ba:	4249      	negs	r1, r1
    44bc:	9303      	str	r3, [sp, #12]
    44be:	2600      	movs	r6, #0
    44c0:	a806      	add	r0, sp, #24
    44c2:	f7fb ef06 	blx	2d0 <sark_div10>
    44c6:	9b07      	ldr	r3, [sp, #28]
    44c8:	3601      	adds	r6, #1
    44ca:	9906      	ldr	r1, [sp, #24]
    44cc:	af08      	add	r7, sp, #32
    44ce:	1e72      	subs	r2, r6, #1
    44d0:	3330      	adds	r3, #48	; 0x30
    44d2:	54bb      	strb	r3, [r7, r2]
    44d4:	2900      	cmp	r1, #0
    44d6:	d1f3      	bne.n	44c0 <io_printf+0x14c>
    44d8:	3e01      	subs	r6, #1
    44da:	5dbb      	ldrb	r3, [r7, r6]
    44dc:	2b30      	cmp	r3, #48	; 0x30
    44de:	d101      	bne.n	44e4 <io_printf+0x170>
    44e0:	2e00      	cmp	r6, #0
    44e2:	d1f9      	bne.n	44d8 <io_printf+0x164>
    44e4:	9b03      	ldr	r3, [sp, #12]
    44e6:	2b00      	cmp	r3, #0
    44e8:	d003      	beq.n	44f2 <io_printf+0x17e>
    44ea:	466b      	mov	r3, sp
    44ec:	3601      	adds	r6, #1
    44ee:	7b1b      	ldrb	r3, [r3, #12]
    44f0:	55bb      	strb	r3, [r7, r6]
    44f2:	1c73      	adds	r3, r6, #1
    44f4:	429c      	cmp	r4, r3
    44f6:	d905      	bls.n	4504 <io_printf+0x190>
    44f8:	1c28      	adds	r0, r5, #0
    44fa:	2120      	movs	r1, #32
    44fc:	f7ff fe64 	bl	41c8 <io_put_char>
    4500:	3c01      	subs	r4, #1
    4502:	e7f6      	b.n	44f2 <io_printf+0x17e>
    4504:	5db9      	ldrb	r1, [r7, r6]
    4506:	1c28      	adds	r0, r5, #0
    4508:	f7ff fe5e 	bl	41c8 <io_put_char>
    450c:	3e01      	subs	r6, #1
    450e:	d2f9      	bcs.n	4504 <io_printf+0x190>
    4510:	e73e      	b.n	4390 <io_printf+0x1c>
    4512:	9b05      	ldr	r3, [sp, #20]
    4514:	2600      	movs	r6, #0
    4516:	6819      	ldr	r1, [r3, #0]
    4518:	1d1a      	adds	r2, r3, #4
    451a:	9205      	str	r2, [sp, #20]
    451c:	a806      	add	r0, sp, #24
    451e:	f7fb eed8 	blx	2d0 <sark_div10>
    4522:	9b07      	ldr	r3, [sp, #28]
    4524:	3601      	adds	r6, #1
    4526:	9906      	ldr	r1, [sp, #24]
    4528:	af08      	add	r7, sp, #32
    452a:	1e72      	subs	r2, r6, #1
    452c:	3330      	adds	r3, #48	; 0x30
    452e:	54bb      	strb	r3, [r7, r2]
    4530:	2900      	cmp	r1, #0
    4532:	d1f3      	bne.n	451c <io_printf+0x1a8>
    4534:	3e01      	subs	r6, #1
    4536:	5dbb      	ldrb	r3, [r7, r6]
    4538:	2b30      	cmp	r3, #48	; 0x30
    453a:	d101      	bne.n	4540 <io_printf+0x1cc>
    453c:	2e00      	cmp	r6, #0
    453e:	d1f9      	bne.n	4534 <io_printf+0x1c0>
    4540:	1c73      	adds	r3, r6, #1
    4542:	429c      	cmp	r4, r3
    4544:	d905      	bls.n	4552 <io_printf+0x1de>
    4546:	1c28      	adds	r0, r5, #0
    4548:	9903      	ldr	r1, [sp, #12]
    454a:	f7ff fe3d 	bl	41c8 <io_put_char>
    454e:	3c01      	subs	r4, #1
    4550:	e7f6      	b.n	4540 <io_printf+0x1cc>
    4552:	5db9      	ldrb	r1, [r7, r6]
    4554:	1c28      	adds	r0, r5, #0
    4556:	f7ff fe37 	bl	41c8 <io_put_char>
    455a:	3e01      	subs	r6, #1
    455c:	d2f9      	bcs.n	4552 <io_printf+0x1de>
    455e:	e717      	b.n	4390 <io_printf+0x1c>
    4560:	9a05      	ldr	r2, [sp, #20]
    4562:	1c28      	adds	r0, r5, #0
    4564:	1d11      	adds	r1, r2, #4
    4566:	9105      	str	r1, [sp, #20]
    4568:	9903      	ldr	r1, [sp, #12]
    456a:	9100      	str	r1, [sp, #0]
    456c:	2100      	movs	r1, #0
    456e:	9101      	str	r1, [sp, #4]
    4570:	6811      	ldr	r1, [r2, #0]
    4572:	e00c      	b.n	458e <io_printf+0x21a>
    4574:	9a05      	ldr	r2, [sp, #20]
    4576:	1d11      	adds	r1, r2, #4
    4578:	6812      	ldr	r2, [r2, #0]
    457a:	9105      	str	r1, [sp, #20]
    457c:	17d0      	asrs	r0, r2, #31
    457e:	1811      	adds	r1, r2, r0
    4580:	4041      	eors	r1, r0
    4582:	9803      	ldr	r0, [sp, #12]
    4584:	9000      	str	r0, [sp, #0]
    4586:	0fd2      	lsrs	r2, r2, #31
    4588:	0049      	lsls	r1, r1, #1
    458a:	1c28      	adds	r0, r5, #0
    458c:	9201      	str	r2, [sp, #4]
    458e:	1c22      	adds	r2, r4, #0
    4590:	f7ff fe90 	bl	42b4 <io_put_fixed>
    4594:	e6fc      	b.n	4390 <io_printf+0x1c>
    4596:	9b05      	ldr	r3, [sp, #20]
    4598:	2600      	movs	r6, #0
    459a:	1d1a      	adds	r2, r3, #4
    459c:	681b      	ldr	r3, [r3, #0]
    459e:	9205      	str	r2, [sp, #20]
    45a0:	220f      	movs	r2, #15
    45a2:	481c      	ldr	r0, [pc, #112]	; (4614 <io_printf+0x2a0>)
    45a4:	401a      	ands	r2, r3
    45a6:	3601      	adds	r6, #1
    45a8:	af08      	add	r7, sp, #32
    45aa:	1e71      	subs	r1, r6, #1
    45ac:	5c82      	ldrb	r2, [r0, r2]
    45ae:	547a      	strb	r2, [r7, r1]
    45b0:	091b      	lsrs	r3, r3, #4
    45b2:	d1f5      	bne.n	45a0 <io_printf+0x22c>
    45b4:	3e01      	subs	r6, #1
    45b6:	5dbb      	ldrb	r3, [r7, r6]
    45b8:	2b30      	cmp	r3, #48	; 0x30
    45ba:	d101      	bne.n	45c0 <io_printf+0x24c>
    45bc:	2e00      	cmp	r6, #0
    45be:	d1f9      	bne.n	45b4 <io_printf+0x240>
    45c0:	1c73      	adds	r3, r6, #1
    45c2:	429c      	cmp	r4, r3
    45c4:	d905      	bls.n	45d2 <io_printf+0x25e>
    45c6:	1c28      	adds	r0, r5, #0
    45c8:	9903      	ldr	r1, [sp, #12]
    45ca:	f7ff fdfd 	bl	41c8 <io_put_char>
    45ce:	3c01      	subs	r4, #1
    45d0:	e7f6      	b.n	45c0 <io_printf+0x24c>
    45d2:	5db9      	ldrb	r1, [r7, r6]
    45d4:	1c28      	adds	r0, r5, #0
    45d6:	f7ff fdf7 	bl	41c8 <io_put_char>
    45da:	3e01      	subs	r6, #1
    45dc:	d2f9      	bcs.n	45d2 <io_printf+0x25e>
    45de:	e6d7      	b.n	4390 <io_printf+0x1c>
    45e0:	2e00      	cmp	r6, #0
    45e2:	da00      	bge.n	45e6 <io_printf+0x272>
    45e4:	e6d4      	b.n	4390 <io_printf+0x1c>
    45e6:	1c3a      	adds	r2, r7, #0
    45e8:	40e2      	lsrs	r2, r4
    45ea:	230f      	movs	r3, #15
    45ec:	4013      	ands	r3, r2
    45ee:	4a09      	ldr	r2, [pc, #36]	; (4614 <io_printf+0x2a0>)
    45f0:	1c28      	adds	r0, r5, #0
    45f2:	5cd1      	ldrb	r1, [r2, r3]
    45f4:	f7ff fde8 	bl	41c8 <io_put_char>
    45f8:	3e01      	subs	r6, #1
    45fa:	3c04      	subs	r4, #4
    45fc:	e7f0      	b.n	45e0 <io_printf+0x26c>
    45fe:	1c28      	adds	r0, r5, #0
    4600:	e738      	b.n	4474 <io_printf+0x100>
    4602:	b00c      	add	sp, #48	; 0x30
    4604:	bcf0      	pop	{r4, r5, r6, r7}
    4606:	bc08      	pop	{r3}
    4608:	b003      	add	sp, #12
    460a:	4718      	bx	r3
    460c:	00400340 	.word	0x00400340
    4610:	3fffffff 	.word	0x3fffffff
    4614:	0000554e 	.word	0x0000554e

00004618 <spin1_msg_free>:
    4618:	b508      	push	{r3, lr}
    461a:	f7ff f951 	bl	38c0 <sark_msg_free>
    461e:	bd08      	pop	{r3, pc}

00004620 <spin1_send_sdp_msg>:
    4620:	b508      	push	{r3, lr}
    4622:	f7ff fa3b 	bl	3a9c <sark_msg_send>
    4626:	bd08      	pop	{r3, pc}

00004628 <configure_dma_controller>:
    4628:	4b06      	ldr	r3, [pc, #24]	; (4644 <configure_dma_controller+0x1c>)
    462a:	223f      	movs	r2, #63	; 0x3f
    462c:	601a      	str	r2, [r3, #0]
    462e:	3a32      	subs	r2, #50	; 0x32
    4630:	601a      	str	r2, [r3, #0]
    4632:	4b05      	ldr	r3, [pc, #20]	; (4648 <configure_dma_controller+0x20>)
    4634:	22c0      	movs	r2, #192	; 0xc0
    4636:	0112      	lsls	r2, r2, #4
    4638:	601a      	str	r2, [r3, #0]
    463a:	4b04      	ldr	r3, [pc, #16]	; (464c <configure_dma_controller+0x24>)
    463c:	2203      	movs	r2, #3
    463e:	601a      	str	r2, [r3, #0]
    4640:	4770      	bx	lr
    4642:	46c0      	nop			; (mov r8, r8)
    4644:	40000010 	.word	0x40000010
    4648:	40000018 	.word	0x40000018
    464c:	40000028 	.word	0x40000028

00004650 <configure_timer1>:
    4650:	4b08      	ldr	r3, [pc, #32]	; (4674 <configure_timer1+0x24>)
    4652:	2200      	movs	r2, #0
    4654:	601a      	str	r2, [r3, #0]
    4656:	4b08      	ldr	r3, [pc, #32]	; (4678 <configure_timer1+0x28>)
    4658:	3201      	adds	r2, #1
    465a:	601a      	str	r2, [r3, #0]
    465c:	4b07      	ldr	r3, [pc, #28]	; (467c <configure_timer1+0x2c>)
    465e:	1841      	adds	r1, r0, r1
    4660:	8c9b      	ldrh	r3, [r3, #36]	; 0x24
    4662:	2284      	movs	r2, #132	; 0x84
    4664:	4359      	muls	r1, r3
    4666:	4358      	muls	r0, r3
    4668:	4b05      	ldr	r3, [pc, #20]	; (4680 <configure_timer1+0x30>)
    466a:	0592      	lsls	r2, r2, #22
    466c:	6011      	str	r1, [r2, #0]
    466e:	6018      	str	r0, [r3, #0]
    4670:	4770      	bx	lr
    4672:	46c0      	nop			; (mov r8, r8)
    4674:	21000008 	.word	0x21000008
    4678:	2100000c 	.word	0x2100000c
    467c:	e5007f00 	.word	0xe5007f00
    4680:	21000018 	.word	0x21000018

00004684 <configure_vic>:
    4684:	4b36      	ldr	r3, [pc, #216]	; (4760 <configure_vic+0xdc>)
    4686:	4a37      	ldr	r2, [pc, #220]	; (4764 <configure_vic+0xe0>)
    4688:	b530      	push	{r4, r5, lr}
    468a:	601a      	str	r2, [r3, #0]
    468c:	4a36      	ldr	r2, [pc, #216]	; (4768 <configure_vic+0xe4>)
    468e:	2320      	movs	r3, #32
    4690:	69d9      	ldr	r1, [r3, #28]
    4692:	6011      	str	r1, [r2, #0]
    4694:	4935      	ldr	r1, [pc, #212]	; (476c <configure_vic+0xe8>)
    4696:	4a36      	ldr	r2, [pc, #216]	; (4770 <configure_vic+0xec>)
    4698:	1c04      	adds	r4, r0, #0
    469a:	6808      	ldr	r0, [r1, #0]
    469c:	6010      	str	r0, [r2, #0]
    469e:	4a35      	ldr	r2, [pc, #212]	; (4774 <configure_vic+0xf0>)
    46a0:	4835      	ldr	r0, [pc, #212]	; (4778 <configure_vic+0xf4>)
    46a2:	6815      	ldr	r5, [r2, #0]
    46a4:	6005      	str	r5, [r0, #0]
    46a6:	4835      	ldr	r0, [pc, #212]	; (477c <configure_vic+0xf8>)
    46a8:	6800      	ldr	r0, [r0, #0]
    46aa:	2807      	cmp	r0, #7
    46ac:	d81c      	bhi.n	46e8 <configure_vic+0x64>
    46ae:	f7fb fe59 	bl	364 <__gnu_thumb1_case_uqi>
    46b2:	0e04      	.short	0x0e04
    46b4:	04171b13 	.word	0x04171b13
    46b8:	0909      	.short	0x0909
    46ba:	4831      	ldr	r0, [pc, #196]	; (4780 <configure_vic+0xfc>)
    46bc:	61d8      	str	r0, [r3, #28]
    46be:	2080      	movs	r0, #128	; 0x80
    46c0:	0440      	lsls	r0, r0, #17
    46c2:	e012      	b.n	46ea <configure_vic+0x66>
    46c4:	482f      	ldr	r0, [pc, #188]	; (4784 <configure_vic+0x100>)
    46c6:	61d8      	str	r0, [r3, #28]
    46c8:	2080      	movs	r0, #128	; 0x80
    46ca:	0500      	lsls	r0, r0, #20
    46cc:	e00d      	b.n	46ea <configure_vic+0x66>
    46ce:	482e      	ldr	r0, [pc, #184]	; (4788 <configure_vic+0x104>)
    46d0:	61d8      	str	r0, [r3, #28]
    46d2:	2080      	movs	r0, #128	; 0x80
    46d4:	0140      	lsls	r0, r0, #5
    46d6:	e008      	b.n	46ea <configure_vic+0x66>
    46d8:	482c      	ldr	r0, [pc, #176]	; (478c <configure_vic+0x108>)
    46da:	61d8      	str	r0, [r3, #28]
    46dc:	2010      	movs	r0, #16
    46de:	e004      	b.n	46ea <configure_vic+0x66>
    46e0:	482b      	ldr	r0, [pc, #172]	; (4790 <configure_vic+0x10c>)
    46e2:	61d8      	str	r0, [r3, #28]
    46e4:	2002      	movs	r0, #2
    46e6:	e000      	b.n	46ea <configure_vic+0x66>
    46e8:	2000      	movs	r0, #0
    46ea:	2359      	movs	r3, #89	; 0x59
    46ec:	781b      	ldrb	r3, [r3, #0]
    46ee:	4d29      	ldr	r5, [pc, #164]	; (4794 <configure_vic+0x110>)
    46f0:	009b      	lsls	r3, r3, #2
    46f2:	195b      	adds	r3, r3, r5
    46f4:	2500      	movs	r5, #0
    46f6:	601d      	str	r5, [r3, #0]
    46f8:	4b27      	ldr	r3, [pc, #156]	; (4798 <configure_vic+0x114>)
    46fa:	4d28      	ldr	r5, [pc, #160]	; (479c <configure_vic+0x118>)
    46fc:	601d      	str	r5, [r3, #0]
    46fe:	4b25      	ldr	r3, [pc, #148]	; (4794 <configure_vic+0x110>)
    4700:	2532      	movs	r5, #50	; 0x32
    4702:	601d      	str	r5, [r3, #0]
    4704:	4b26      	ldr	r3, [pc, #152]	; (47a0 <configure_vic+0x11c>)
    4706:	4d27      	ldr	r5, [pc, #156]	; (47a4 <configure_vic+0x120>)
    4708:	601d      	str	r5, [r3, #0]
    470a:	4b27      	ldr	r3, [pc, #156]	; (47a8 <configure_vic+0x124>)
    470c:	2538      	movs	r5, #56	; 0x38
    470e:	601d      	str	r5, [r3, #0]
    4710:	4b26      	ldr	r3, [pc, #152]	; (47ac <configure_vic+0x128>)
    4712:	4d27      	ldr	r5, [pc, #156]	; (47b0 <configure_vic+0x12c>)
    4714:	601d      	str	r5, [r3, #0]
    4716:	4b27      	ldr	r3, [pc, #156]	; (47b4 <configure_vic+0x130>)
    4718:	253b      	movs	r5, #59	; 0x3b
    471a:	601d      	str	r5, [r3, #0]
    471c:	4b26      	ldr	r3, [pc, #152]	; (47b8 <configure_vic+0x134>)
    471e:	4d27      	ldr	r5, [pc, #156]	; (47bc <configure_vic+0x138>)
    4720:	601d      	str	r5, [r3, #0]
    4722:	4b27      	ldr	r3, [pc, #156]	; (47c0 <configure_vic+0x13c>)
    4724:	252c      	movs	r5, #44	; 0x2c
    4726:	601d      	str	r5, [r3, #0]
    4728:	4b26      	ldr	r3, [pc, #152]	; (47c4 <configure_vic+0x140>)
    472a:	4d27      	ldr	r5, [pc, #156]	; (47c8 <configure_vic+0x144>)
    472c:	601d      	str	r5, [r3, #0]
    472e:	4b27      	ldr	r3, [pc, #156]	; (47cc <configure_vic+0x148>)
    4730:	2524      	movs	r5, #36	; 0x24
    4732:	601d      	str	r5, [r3, #0]
    4734:	4b26      	ldr	r3, [pc, #152]	; (47d0 <configure_vic+0x14c>)
    4736:	4d27      	ldr	r5, [pc, #156]	; (47d4 <configure_vic+0x150>)
    4738:	601d      	str	r5, [r3, #0]
    473a:	4b27      	ldr	r3, [pc, #156]	; (47d8 <configure_vic+0x154>)
    473c:	252b      	movs	r5, #43	; 0x2b
    473e:	601d      	str	r5, [r3, #0]
    4740:	4b26      	ldr	r3, [pc, #152]	; (47dc <configure_vic+0x158>)
    4742:	4d27      	ldr	r5, [pc, #156]	; (47e0 <configure_vic+0x15c>)
    4744:	601d      	str	r5, [r3, #0]
    4746:	4b27      	ldr	r3, [pc, #156]	; (47e4 <configure_vic+0x160>)
    4748:	2521      	movs	r5, #33	; 0x21
    474a:	601d      	str	r5, [r3, #0]
    474c:	6008      	str	r0, [r1, #0]
    474e:	2c00      	cmp	r4, #0
    4750:	d101      	bne.n	4756 <configure_vic+0xd2>
    4752:	4925      	ldr	r1, [pc, #148]	; (47e8 <configure_vic+0x164>)
    4754:	e000      	b.n	4758 <configure_vic+0xd4>
    4756:	4903      	ldr	r1, [pc, #12]	; (4764 <configure_vic+0xe0>)
    4758:	4b24      	ldr	r3, [pc, #144]	; (47ec <configure_vic+0x168>)
    475a:	400b      	ands	r3, r1
    475c:	6013      	str	r3, [r2, #0]
    475e:	bd30      	pop	{r4, r5, pc}
    4760:	1f000014 	.word	0x1f000014
    4764:	09003012 	.word	0x09003012
    4768:	00400988 	.word	0x00400988
    476c:	1f00000c 	.word	0x1f00000c
    4770:	00400b28 	.word	0x00400b28
    4774:	1f000010 	.word	0x1f000010
    4778:	004009d4 	.word	0x004009d4
    477c:	0040000c 	.word	0x0040000c
    4780:	00004ffc 	.word	0x00004ffc
    4784:	000050a8 	.word	0x000050a8
    4788:	00005200 	.word	0x00005200
    478c:	00005300 	.word	0x00005300
    4790:	000053a8 	.word	0x000053a8
    4794:	2f000200 	.word	0x2f000200
    4798:	2f000100 	.word	0x2f000100
    479c:	00000300 	.word	0x00000300
    47a0:	2f00010c 	.word	0x2f00010c
    47a4:	00004f84 	.word	0x00004f84
    47a8:	2f00020c 	.word	0x2f00020c
    47ac:	2f000110 	.word	0x2f000110
    47b0:	00005034 	.word	0x00005034
    47b4:	2f000210 	.word	0x2f000210
    47b8:	2f000108 	.word	0x2f000108
    47bc:	00005170 	.word	0x00005170
    47c0:	2f000208 	.word	0x2f000208
    47c4:	2f000104 	.word	0x2f000104
    47c8:	00005278 	.word	0x00005278
    47cc:	2f000204 	.word	0x2f000204
    47d0:	2f000114 	.word	0x2f000114
    47d4:	000050e0 	.word	0x000050e0
    47d8:	2f000214 	.word	0x2f000214
    47dc:	2f000118 	.word	0x2f000118
    47e0:	00005340 	.word	0x00005340
    47e4:	2f000218 	.word	0x2f000218
    47e8:	09003002 	.word	0x09003002
    47ec:	ffffdfff 	.word	0xffffdfff

000047f0 <spin1_pause>:
    47f0:	b508      	push	{r3, lr}
    47f2:	4b08      	ldr	r3, [pc, #32]	; (4814 <spin1_pause+0x24>)
    47f4:	2210      	movs	r2, #16
    47f6:	601a      	str	r2, [r3, #0]
    47f8:	4b07      	ldr	r3, [pc, #28]	; (4818 <spin1_pause+0x28>)
    47fa:	6818      	ldr	r0, [r3, #0]
    47fc:	4b07      	ldr	r3, [pc, #28]	; (481c <spin1_pause+0x2c>)
    47fe:	6819      	ldr	r1, [r3, #0]
    4800:	f7ff ff26 	bl	4650 <configure_timer1>
    4804:	200a      	movs	r0, #10
    4806:	f7ff f821 	bl	384c <sark_cpu_state>
    480a:	4b05      	ldr	r3, [pc, #20]	; (4820 <spin1_pause+0x30>)
    480c:	2201      	movs	r2, #1
    480e:	601a      	str	r2, [r3, #0]
    4810:	bd08      	pop	{r3, pc}
    4812:	46c0      	nop			; (mov r8, r8)
    4814:	1f000014 	.word	0x1f000014
    4818:	0040034c 	.word	0x0040034c
    481c:	00400344 	.word	0x00400344
    4820:	00400350 	.word	0x00400350

00004824 <resume>:
    4824:	b508      	push	{r3, lr}
    4826:	4b0b      	ldr	r3, [pc, #44]	; (4854 <resume+0x30>)
    4828:	6819      	ldr	r1, [r3, #0]
    482a:	2901      	cmp	r1, #1
    482c:	d105      	bne.n	483a <resume+0x16>
    482e:	2200      	movs	r2, #0
    4830:	601a      	str	r2, [r3, #0]
    4832:	4a09      	ldr	r2, [pc, #36]	; (4858 <resume+0x34>)
    4834:	7e93      	ldrb	r3, [r2, #26]
    4836:	404b      	eors	r3, r1
    4838:	7693      	strb	r3, [r2, #26]
    483a:	4b08      	ldr	r3, [pc, #32]	; (485c <resume+0x38>)
    483c:	2200      	movs	r2, #0
    483e:	2007      	movs	r0, #7
    4840:	601a      	str	r2, [r3, #0]
    4842:	f7ff f803 	bl	384c <sark_cpu_state>
    4846:	4b06      	ldr	r3, [pc, #24]	; (4860 <resume+0x3c>)
    4848:	2210      	movs	r2, #16
    484a:	601a      	str	r2, [r3, #0]
    484c:	4b05      	ldr	r3, [pc, #20]	; (4864 <resume+0x40>)
    484e:	32d2      	adds	r2, #210	; 0xd2
    4850:	601a      	str	r2, [r3, #0]
    4852:	bd08      	pop	{r3, pc}
    4854:	00400348 	.word	0x00400348
    4858:	004008f0 	.word	0x004008f0
    485c:	00400350 	.word	0x00400350
    4860:	1f000010 	.word	0x1f000010
    4864:	21000008 	.word	0x21000008

00004868 <spin1_resume>:
    4868:	b508      	push	{r3, lr}
    486a:	2800      	cmp	r0, #0
    486c:	d102      	bne.n	4874 <spin1_resume+0xc>
    486e:	f7ff ffd9 	bl	4824 <resume>
    4872:	e00a      	b.n	488a <spin1_resume+0x22>
    4874:	4b05      	ldr	r3, [pc, #20]	; (488c <spin1_resume+0x24>)
    4876:	2201      	movs	r2, #1
    4878:	601a      	str	r2, [r3, #0]
    487a:	4b05      	ldr	r3, [pc, #20]	; (4890 <spin1_resume+0x28>)
    487c:	2009      	movs	r0, #9
    487e:	7e9b      	ldrb	r3, [r3, #26]
    4880:	2b00      	cmp	r3, #0
    4882:	d100      	bne.n	4886 <spin1_resume+0x1e>
    4884:	2008      	movs	r0, #8
    4886:	f7fe ffe1 	bl	384c <sark_cpu_state>
    488a:	bd08      	pop	{r3, pc}
    488c:	00400348 	.word	0x00400348
    4890:	004008f0 	.word	0x004008f0

00004894 <resume_wait>:
    4894:	4b07      	ldr	r3, [pc, #28]	; (48b4 <resume_wait+0x20>)
    4896:	6818      	ldr	r0, [r3, #0]
    4898:	2301      	movs	r3, #1
    489a:	4083      	lsls	r3, r0
    489c:	1c18      	adds	r0, r3, #0
    489e:	4b06      	ldr	r3, [pc, #24]	; (48b8 <resume_wait+0x24>)
    48a0:	7e9a      	ldrb	r2, [r3, #26]
    48a2:	4b06      	ldr	r3, [pc, #24]	; (48bc <resume_wait+0x28>)
    48a4:	681b      	ldr	r3, [r3, #0]
    48a6:	2a00      	cmp	r2, #0
    48a8:	d001      	beq.n	48ae <resume_wait+0x1a>
    48aa:	4398      	bics	r0, r3
    48ac:	e000      	b.n	48b0 <resume_wait+0x1c>
    48ae:	4018      	ands	r0, r3
    48b0:	4770      	bx	lr
    48b2:	46c0      	nop			; (mov r8, r8)
    48b4:	004008b4 	.word	0x004008b4
    48b8:	004008f0 	.word	0x004008f0
    48bc:	e2000058 	.word	0xe2000058

000048c0 <dispatch>:
    48c0:	b5f0      	push	{r4, r5, r6, r7, lr}
    48c2:	4c36      	ldr	r4, [pc, #216]	; (499c <dispatch+0xdc>)
    48c4:	b085      	sub	sp, #20
    48c6:	2300      	movs	r3, #0
    48c8:	6023      	str	r3, [r4, #0]
    48ca:	9401      	str	r4, [sp, #4]
    48cc:	4b34      	ldr	r3, [pc, #208]	; (49a0 <dispatch+0xe0>)
    48ce:	681b      	ldr	r3, [r3, #0]
    48d0:	2b00      	cmp	r3, #0
    48d2:	d061      	beq.n	4998 <dispatch+0xd8>
    48d4:	f7fb ec78 	blx	1c8 <cpu_int_disable>
    48d8:	2400      	movs	r4, #0
    48da:	1c05      	adds	r5, r0, #0
    48dc:	4a30      	ldr	r2, [pc, #192]	; (49a0 <dispatch+0xe0>)
    48de:	6811      	ldr	r1, [r2, #0]
    48e0:	2900      	cmp	r1, #0
    48e2:	d103      	bne.n	48ec <dispatch+0x2c>
    48e4:	6813      	ldr	r3, [r2, #0]
    48e6:	2b00      	cmp	r3, #0
    48e8:	d0f0      	beq.n	48cc <dispatch+0xc>
    48ea:	e045      	b.n	4978 <dispatch+0xb8>
    48ec:	2c03      	cmp	r4, #3
    48ee:	d8f9      	bhi.n	48e4 <dispatch+0x24>
    48f0:	22c8      	movs	r2, #200	; 0xc8
    48f2:	1c23      	adds	r3, r4, #0
    48f4:	4353      	muls	r3, r2
    48f6:	492b      	ldr	r1, [pc, #172]	; (49a4 <dispatch+0xe4>)
    48f8:	1c60      	adds	r0, r4, #1
    48fa:	585a      	ldr	r2, [r3, r1]
    48fc:	4694      	mov	ip, r2
    48fe:	18ca      	adds	r2, r1, r3
    4900:	6852      	ldr	r2, [r2, #4]
    4902:	4594      	cmp	ip, r2
    4904:	d036      	beq.n	4974 <dispatch+0xb4>
    4906:	220c      	movs	r2, #12
    4908:	4666      	mov	r6, ip
    490a:	4356      	muls	r6, r2
    490c:	18f2      	adds	r2, r6, r3
    490e:	188a      	adds	r2, r1, r2
    4910:	6896      	ldr	r6, [r2, #8]
    4912:	9603      	str	r6, [sp, #12]
    4914:	68d7      	ldr	r7, [r2, #12]
    4916:	6916      	ldr	r6, [r2, #16]
    4918:	4662      	mov	r2, ip
    491a:	3201      	adds	r2, #1
    491c:	240f      	movs	r4, #15
    491e:	4022      	ands	r2, r4
    4920:	505a      	str	r2, [r3, r1]
    4922:	9b03      	ldr	r3, [sp, #12]
    4924:	2b00      	cmp	r3, #0
    4926:	d025      	beq.n	4974 <dispatch+0xb4>
    4928:	1c28      	adds	r0, r5, #0
    492a:	f7fb ec56 	blx	1d8 <cpu_int_restore>
    492e:	4d1e      	ldr	r5, [pc, #120]	; (49a8 <dispatch+0xe8>)
    4930:	9a03      	ldr	r2, [sp, #12]
    4932:	692b      	ldr	r3, [r5, #16]
    4934:	429a      	cmp	r2, r3
    4936:	d102      	bne.n	493e <dispatch+0x7e>
    4938:	4a1c      	ldr	r2, [pc, #112]	; (49ac <dispatch+0xec>)
    493a:	2101      	movs	r1, #1
    493c:	6391      	str	r1, [r2, #56]	; 0x38
    493e:	9a03      	ldr	r2, [sp, #12]
    4940:	429a      	cmp	r2, r3
    4942:	d103      	bne.n	494c <dispatch+0x8c>
    4944:	4b1a      	ldr	r3, [pc, #104]	; (49b0 <dispatch+0xf0>)
    4946:	681b      	ldr	r3, [r3, #0]
    4948:	2b00      	cmp	r3, #0
    494a:	d103      	bne.n	4954 <dispatch+0x94>
    494c:	9b03      	ldr	r3, [sp, #12]
    494e:	1c38      	adds	r0, r7, #0
    4950:	1c31      	adds	r1, r6, #0
    4952:	4798      	blx	r3
    4954:	9a03      	ldr	r2, [sp, #12]
    4956:	692b      	ldr	r3, [r5, #16]
    4958:	429a      	cmp	r2, r3
    495a:	d107      	bne.n	496c <dispatch+0xac>
    495c:	4a13      	ldr	r2, [pc, #76]	; (49ac <dispatch+0xec>)
    495e:	6bd3      	ldr	r3, [r2, #60]	; 0x3c
    4960:	2b00      	cmp	r3, #0
    4962:	d001      	beq.n	4968 <dispatch+0xa8>
    4964:	3b01      	subs	r3, #1
    4966:	63d3      	str	r3, [r2, #60]	; 0x3c
    4968:	2300      	movs	r3, #0
    496a:	6393      	str	r3, [r2, #56]	; 0x38
    496c:	f7fb ec2c 	blx	1c8 <cpu_int_disable>
    4970:	1c05      	adds	r5, r0, #0
    4972:	2000      	movs	r0, #0
    4974:	1c04      	adds	r4, r0, #0
    4976:	e7b1      	b.n	48dc <dispatch+0x1c>
    4978:	f7fb ec32 	blx	1e0 <cpu_wfi>
    497c:	9b01      	ldr	r3, [sp, #4]
    497e:	681b      	ldr	r3, [r3, #0]
    4980:	2b01      	cmp	r3, #1
    4982:	d105      	bne.n	4990 <dispatch+0xd0>
    4984:	f7ff ff86 	bl	4894 <resume_wait>
    4988:	2800      	cmp	r0, #0
    498a:	d101      	bne.n	4990 <dispatch+0xd0>
    498c:	f7ff ff4a 	bl	4824 <resume>
    4990:	1c28      	adds	r0, r5, #0
    4992:	f7fb ec22 	blx	1d8 <cpu_int_restore>
    4996:	e799      	b.n	48cc <dispatch+0xc>
    4998:	b005      	add	sp, #20
    499a:	bdf0      	pop	{r4, r5, r6, r7, pc}
    499c:	00400348 	.word	0x00400348
    49a0:	00400678 	.word	0x00400678
    49a4:	00400358 	.word	0x00400358
    49a8:	00400b34 	.word	0x00400b34
    49ac:	0040098c 	.word	0x0040098c
    49b0:	00400350 	.word	0x00400350

000049b4 <spin1_callback_on>:
    49b4:	b538      	push	{r3, r4, r5, lr}
    49b6:	1c15      	adds	r5, r2, #0
    49b8:	4a1d      	ldr	r2, [pc, #116]	; (4a30 <spin1_callback_on+0x7c>)
    49ba:	00c3      	lsls	r3, r0, #3
    49bc:	5099      	str	r1, [r3, r2]
    49be:	18d3      	adds	r3, r2, r3
    49c0:	1c04      	adds	r4, r0, #0
    49c2:	605d      	str	r5, [r3, #4]
    49c4:	2d00      	cmp	r5, #0
    49c6:	da1b      	bge.n	4a00 <spin1_callback_on+0x4c>
    49c8:	4a1a      	ldr	r2, [pc, #104]	; (4a34 <spin1_callback_on+0x80>)
    49ca:	6813      	ldr	r3, [r2, #0]
    49cc:	1c59      	adds	r1, r3, #1
    49ce:	d012      	beq.n	49f6 <spin1_callback_on+0x42>
    49d0:	2800      	cmp	r0, #0
    49d2:	d102      	bne.n	49da <spin1_callback_on+0x26>
    49d4:	2b05      	cmp	r3, #5
    49d6:	d110      	bne.n	49fa <spin1_callback_on+0x46>
    49d8:	e00d      	b.n	49f6 <spin1_callback_on+0x42>
    49da:	2805      	cmp	r0, #5
    49dc:	d102      	bne.n	49e4 <spin1_callback_on+0x30>
    49de:	2b00      	cmp	r3, #0
    49e0:	d009      	beq.n	49f6 <spin1_callback_on+0x42>
    49e2:	e00a      	b.n	49fa <spin1_callback_on+0x46>
    49e4:	2806      	cmp	r0, #6
    49e6:	d102      	bne.n	49ee <spin1_callback_on+0x3a>
    49e8:	2b07      	cmp	r3, #7
    49ea:	d106      	bne.n	49fa <spin1_callback_on+0x46>
    49ec:	e003      	b.n	49f6 <spin1_callback_on+0x42>
    49ee:	2807      	cmp	r0, #7
    49f0:	d103      	bne.n	49fa <spin1_callback_on+0x46>
    49f2:	2b06      	cmp	r3, #6
    49f4:	d101      	bne.n	49fa <spin1_callback_on+0x46>
    49f6:	6014      	str	r4, [r2, #0]
    49f8:	e002      	b.n	4a00 <spin1_callback_on+0x4c>
    49fa:	2013      	movs	r0, #19
    49fc:	f7fb eb96 	blx	12c <rt_error>
    4a00:	2c00      	cmp	r4, #0
    4a02:	d001      	beq.n	4a08 <spin1_callback_on+0x54>
    4a04:	2c05      	cmp	r4, #5
    4a06:	d101      	bne.n	4a0c <spin1_callback_on+0x58>
    4a08:	4a0b      	ldr	r2, [pc, #44]	; (4a38 <spin1_callback_on+0x84>)
    4a0a:	e003      	b.n	4a14 <spin1_callback_on+0x60>
    4a0c:	3c06      	subs	r4, #6
    4a0e:	2c01      	cmp	r4, #1
    4a10:	d80c      	bhi.n	4a2c <spin1_callback_on+0x78>
    4a12:	4a0a      	ldr	r2, [pc, #40]	; (4a3c <spin1_callback_on+0x88>)
    4a14:	6813      	ldr	r3, [r2, #0]
    4a16:	1c99      	adds	r1, r3, #2
    4a18:	d007      	beq.n	4a2a <spin1_callback_on+0x76>
    4a1a:	3301      	adds	r3, #1
    4a1c:	d106      	bne.n	4a2c <spin1_callback_on+0x78>
    4a1e:	1c6b      	adds	r3, r5, #1
    4a20:	d004      	beq.n	4a2c <spin1_callback_on+0x78>
    4a22:	2013      	movs	r0, #19
    4a24:	f7fb eb82 	blx	12c <rt_error>
    4a28:	e000      	b.n	4a2c <spin1_callback_on+0x78>
    4a2a:	6015      	str	r5, [r2, #0]
    4a2c:	bd38      	pop	{r3, r4, r5, pc}
    4a2e:	46c0      	nop			; (mov r8, r8)
    4a30:	00400b34 	.word	0x00400b34
    4a34:	0040000c 	.word	0x0040000c
    4a38:	00400004 	.word	0x00400004
    4a3c:	00400008 	.word	0x00400008

00004a40 <spin1_exit>:
    4a40:	4b04      	ldr	r3, [pc, #16]	; (4a54 <spin1_exit+0x14>)
    4a42:	4a05      	ldr	r2, [pc, #20]	; (4a58 <spin1_exit+0x18>)
    4a44:	601a      	str	r2, [r3, #0]
    4a46:	4b05      	ldr	r3, [pc, #20]	; (4a5c <spin1_exit+0x1c>)
    4a48:	2200      	movs	r2, #0
    4a4a:	601a      	str	r2, [r3, #0]
    4a4c:	4b04      	ldr	r3, [pc, #16]	; (4a60 <spin1_exit+0x20>)
    4a4e:	6018      	str	r0, [r3, #0]
    4a50:	4770      	bx	lr
    4a52:	46c0      	nop			; (mov r8, r8)
    4a54:	1f000014 	.word	0x1f000014
    4a58:	09003012 	.word	0x09003012
    4a5c:	00400678 	.word	0x00400678
    4a60:	0040098c 	.word	0x0040098c

00004a64 <spin1_set_timer_tick_and_phase>:
    4a64:	4b02      	ldr	r3, [pc, #8]	; (4a70 <spin1_set_timer_tick_and_phase+0xc>)
    4a66:	6018      	str	r0, [r3, #0]
    4a68:	4b02      	ldr	r3, [pc, #8]	; (4a74 <spin1_set_timer_tick_and_phase+0x10>)
    4a6a:	6019      	str	r1, [r3, #0]
    4a6c:	4770      	bx	lr
    4a6e:	46c0      	nop			; (mov r8, r8)
    4a70:	0040034c 	.word	0x0040034c
    4a74:	00400344 	.word	0x00400344

00004a78 <clean_up>:
    4a78:	b508      	push	{r3, lr}
    4a7a:	f7fb eba6 	blx	1c8 <cpu_int_disable>
    4a7e:	4b10      	ldr	r3, [pc, #64]	; (4ac0 <clean_up+0x48>)
    4a80:	681a      	ldr	r2, [r3, #0]
    4a82:	2320      	movs	r3, #32
    4a84:	61da      	str	r2, [r3, #28]
    4a86:	4b0f      	ldr	r3, [pc, #60]	; (4ac4 <clean_up+0x4c>)
    4a88:	681a      	ldr	r2, [r3, #0]
    4a8a:	4b0f      	ldr	r3, [pc, #60]	; (4ac8 <clean_up+0x50>)
    4a8c:	601a      	str	r2, [r3, #0]
    4a8e:	4b0f      	ldr	r3, [pc, #60]	; (4acc <clean_up+0x54>)
    4a90:	681a      	ldr	r2, [r3, #0]
    4a92:	4b0f      	ldr	r3, [pc, #60]	; (4ad0 <clean_up+0x58>)
    4a94:	601a      	str	r2, [r3, #0]
    4a96:	2359      	movs	r3, #89	; 0x59
    4a98:	781b      	ldrb	r3, [r3, #0]
    4a9a:	4a0e      	ldr	r2, [pc, #56]	; (4ad4 <clean_up+0x5c>)
    4a9c:	009b      	lsls	r3, r3, #2
    4a9e:	189b      	adds	r3, r3, r2
    4aa0:	2232      	movs	r2, #50	; 0x32
    4aa2:	601a      	str	r2, [r3, #0]
    4aa4:	4b0c      	ldr	r3, [pc, #48]	; (4ad8 <clean_up+0x60>)
    4aa6:	3a31      	subs	r2, #49	; 0x31
    4aa8:	601a      	str	r2, [r3, #0]
    4aaa:	4b0c      	ldr	r3, [pc, #48]	; (4adc <clean_up+0x64>)
    4aac:	2200      	movs	r2, #0
    4aae:	601a      	str	r2, [r3, #0]
    4ab0:	4b0b      	ldr	r3, [pc, #44]	; (4ae0 <clean_up+0x68>)
    4ab2:	323f      	adds	r2, #63	; 0x3f
    4ab4:	601a      	str	r2, [r3, #0]
    4ab6:	3a32      	subs	r2, #50	; 0x32
    4ab8:	601a      	str	r2, [r3, #0]
    4aba:	f7fb eb8e 	blx	1d8 <cpu_int_restore>
    4abe:	bd08      	pop	{r3, pc}
    4ac0:	00400988 	.word	0x00400988
    4ac4:	00400b28 	.word	0x00400b28
    4ac8:	1f00000c 	.word	0x1f00000c
    4acc:	004009d4 	.word	0x004009d4
    4ad0:	1f000010 	.word	0x1f000010
    4ad4:	2f000200 	.word	0x2f000200
    4ad8:	2100000c 	.word	0x2100000c
    4adc:	40000018 	.word	0x40000018
    4ae0:	40000010 	.word	0x40000010

00004ae4 <report_debug>:
    4ae4:	4b12      	ldr	r3, [pc, #72]	; (4b30 <report_debug+0x4c>)
    4ae6:	b510      	push	{r4, lr}
    4ae8:	781b      	ldrb	r3, [r3, #0]
    4aea:	2b00      	cmp	r3, #0
    4aec:	d00e      	beq.n	4b0c <report_debug+0x28>
    4aee:	4b11      	ldr	r3, [pc, #68]	; (4b34 <report_debug+0x50>)
    4af0:	4a11      	ldr	r2, [pc, #68]	; (4b38 <report_debug+0x54>)
    4af2:	681b      	ldr	r3, [r3, #0]
    4af4:	6812      	ldr	r2, [r2, #0]
    4af6:	2002      	movs	r0, #2
    4af8:	18d2      	adds	r2, r2, r3
    4afa:	4910      	ldr	r1, [pc, #64]	; (4b3c <report_debug+0x58>)
    4afc:	f7ff fc3a 	bl	4374 <io_printf>
    4b00:	4b0f      	ldr	r3, [pc, #60]	; (4b40 <report_debug+0x5c>)
    4b02:	2002      	movs	r0, #2
    4b04:	681a      	ldr	r2, [r3, #0]
    4b06:	490f      	ldr	r1, [pc, #60]	; (4b44 <report_debug+0x60>)
    4b08:	f7ff fc34 	bl	4374 <io_printf>
    4b0c:	4c0e      	ldr	r4, [pc, #56]	; (4b48 <report_debug+0x64>)
    4b0e:	2002      	movs	r0, #2
    4b10:	6922      	ldr	r2, [r4, #16]
    4b12:	490e      	ldr	r1, [pc, #56]	; (4b4c <report_debug+0x68>)
    4b14:	f7ff fc2e 	bl	4374 <io_printf>
    4b18:	6b62      	ldr	r2, [r4, #52]	; 0x34
    4b1a:	2002      	movs	r0, #2
    4b1c:	490c      	ldr	r1, [pc, #48]	; (4b50 <report_debug+0x6c>)
    4b1e:	f7ff fc29 	bl	4374 <io_printf>
    4b22:	4b0c      	ldr	r3, [pc, #48]	; (4b54 <report_debug+0x70>)
    4b24:	2002      	movs	r0, #2
    4b26:	681a      	ldr	r2, [r3, #0]
    4b28:	490b      	ldr	r1, [pc, #44]	; (4b58 <report_debug+0x74>)
    4b2a:	f7ff fc23 	bl	4374 <io_printf>
    4b2e:	bd10      	pop	{r4, pc}
    4b30:	004009dc 	.word	0x004009dc
    4b34:	e1000300 	.word	0xe1000300
    4b38:	e1000304 	.word	0xe1000304
    4b3c:	0000555f 	.word	0x0000555f
    4b40:	e1000320 	.word	0xe1000320
    4b44:	00005585 	.word	0x00005585
    4b48:	0040098c 	.word	0x0040098c
    4b4c:	000055ab 	.word	0x000055ab
    4b50:	000055d1 	.word	0x000055d1
    4b54:	40000040 	.word	0x40000040
    4b58:	000055fa 	.word	0x000055fa

00004b5c <report_warns>:
    4b5c:	b510      	push	{r4, lr}
    4b5e:	4c0d      	ldr	r4, [pc, #52]	; (4b94 <report_warns+0x38>)
    4b60:	6863      	ldr	r3, [r4, #4]
    4b62:	07db      	lsls	r3, r3, #31
    4b64:	d504      	bpl.n	4b70 <report_warns+0x14>
    4b66:	2002      	movs	r0, #2
    4b68:	490b      	ldr	r1, [pc, #44]	; (4b98 <report_warns+0x3c>)
    4b6a:	6a22      	ldr	r2, [r4, #32]
    4b6c:	f7ff fc02 	bl	4374 <io_printf>
    4b70:	6863      	ldr	r3, [r4, #4]
    4b72:	2002      	movs	r0, #2
    4b74:	4203      	tst	r3, r0
    4b76:	d003      	beq.n	4b80 <report_warns+0x24>
    4b78:	4908      	ldr	r1, [pc, #32]	; (4b9c <report_warns+0x40>)
    4b7a:	69e2      	ldr	r2, [r4, #28]
    4b7c:	f7ff fbfa 	bl	4374 <io_printf>
    4b80:	6863      	ldr	r3, [r4, #4]
    4b82:	075b      	lsls	r3, r3, #29
    4b84:	d504      	bpl.n	4b90 <report_warns+0x34>
    4b86:	2002      	movs	r0, #2
    4b88:	4905      	ldr	r1, [pc, #20]	; (4ba0 <report_warns+0x44>)
    4b8a:	6a62      	ldr	r2, [r4, #36]	; 0x24
    4b8c:	f7ff fbf2 	bl	4374 <io_printf>
    4b90:	bd10      	pop	{r4, pc}
    4b92:	46c0      	nop			; (mov r8, r8)
    4b94:	0040098c 	.word	0x0040098c
    4b98:	00005619 	.word	0x00005619
    4b9c:	00005645 	.word	0x00005645
    4ba0:	00005670 	.word	0x00005670

00004ba4 <start>:
    4ba4:	b5f8      	push	{r3, r4, r5, r6, r7, lr}
    4ba6:	4d2e      	ldr	r5, [pc, #184]	; (4c60 <start+0xbc>)
    4ba8:	1c07      	adds	r7, r0, #0
    4baa:	6029      	str	r1, [r5, #0]
    4bac:	682b      	ldr	r3, [r5, #0]
    4bae:	200a      	movs	r0, #10
    4bb0:	2b00      	cmp	r3, #0
    4bb2:	d100      	bne.n	4bb6 <start+0x12>
    4bb4:	2007      	movs	r0, #7
    4bb6:	f7fe fe49 	bl	384c <sark_cpu_state>
    4bba:	2380      	movs	r3, #128	; 0x80
    4bbc:	2400      	movs	r4, #0
    4bbe:	059b      	lsls	r3, r3, #22
    4bc0:	601c      	str	r4, [r3, #0]
    4bc2:	f7ff fd31 	bl	4628 <configure_dma_controller>
    4bc6:	4b27      	ldr	r3, [pc, #156]	; (4c64 <start+0xc0>)
    4bc8:	4e27      	ldr	r6, [pc, #156]	; (4c68 <start+0xc4>)
    4bca:	6819      	ldr	r1, [r3, #0]
    4bcc:	6830      	ldr	r0, [r6, #0]
    4bce:	f7ff fd3f 	bl	4650 <configure_timer1>
    4bd2:	6828      	ldr	r0, [r5, #0]
    4bd4:	4243      	negs	r3, r0
    4bd6:	4158      	adcs	r0, r3
    4bd8:	f7ff fd54 	bl	4684 <configure_vic>
    4bdc:	4b23      	ldr	r3, [pc, #140]	; (4c6c <start+0xc8>)
    4bde:	2201      	movs	r2, #1
    4be0:	605c      	str	r4, [r3, #4]
    4be2:	61dc      	str	r4, [r3, #28]
    4be4:	621c      	str	r4, [r3, #32]
    4be6:	625c      	str	r4, [r3, #36]	; 0x24
    4be8:	601c      	str	r4, [r3, #0]
    4bea:	639c      	str	r4, [r3, #56]	; 0x38
    4bec:	63dc      	str	r4, [r3, #60]	; 0x3c
    4bee:	645c      	str	r4, [r3, #68]	; 0x44
    4bf0:	641c      	str	r4, [r3, #64]	; 0x40
    4bf2:	615a      	str	r2, [r3, #20]
    4bf4:	1c1c      	adds	r4, r3, #0
    4bf6:	4297      	cmp	r7, r2
    4bf8:	d101      	bne.n	4bfe <start+0x5a>
    4bfa:	f7ff f8f7 	bl	3dec <event_wait>
    4bfe:	6833      	ldr	r3, [r6, #0]
    4c00:	2b00      	cmp	r3, #0
    4c02:	d005      	beq.n	4c10 <start+0x6c>
    4c04:	682b      	ldr	r3, [r5, #0]
    4c06:	2b00      	cmp	r3, #0
    4c08:	d102      	bne.n	4c10 <start+0x6c>
    4c0a:	4b19      	ldr	r3, [pc, #100]	; (4c70 <start+0xcc>)
    4c0c:	22e2      	movs	r2, #226	; 0xe2
    4c0e:	601a      	str	r2, [r3, #0]
    4c10:	4b18      	ldr	r3, [pc, #96]	; (4c74 <start+0xd0>)
    4c12:	2200      	movs	r2, #0
    4c14:	601a      	str	r2, [r3, #0]
    4c16:	4b18      	ldr	r3, [pc, #96]	; (4c78 <start+0xd4>)
    4c18:	3201      	adds	r2, #1
    4c1a:	601a      	str	r2, [r3, #0]
    4c1c:	f7ff fe50 	bl	48c0 <dispatch>
    4c20:	f7ff ff2a 	bl	4a78 <clean_up>
    4c24:	f7fb eac8 	blx	1b8 <cpu_int_enable>
    4c28:	4b14      	ldr	r3, [pc, #80]	; (4c7c <start+0xd8>)
    4c2a:	4a15      	ldr	r2, [pc, #84]	; (4c80 <start+0xdc>)
    4c2c:	681b      	ldr	r3, [r3, #0]
    4c2e:	6812      	ldr	r2, [r2, #0]
    4c30:	18d3      	adds	r3, r2, r3
    4c32:	60a3      	str	r3, [r4, #8]
    4c34:	4b13      	ldr	r3, [pc, #76]	; (4c84 <start+0xe0>)
    4c36:	4a14      	ldr	r2, [pc, #80]	; (4c88 <start+0xe4>)
    4c38:	681b      	ldr	r3, [r3, #0]
    4c3a:	60e3      	str	r3, [r4, #12]
    4c3c:	4b13      	ldr	r3, [pc, #76]	; (4c8c <start+0xe8>)
    4c3e:	681b      	ldr	r3, [r3, #0]
    4c40:	61a3      	str	r3, [r4, #24]
    4c42:	4b13      	ldr	r3, [pc, #76]	; (4c90 <start+0xec>)
    4c44:	681b      	ldr	r3, [r3, #0]
    4c46:	6812      	ldr	r2, [r2, #0]
    4c48:	18d3      	adds	r3, r2, r3
    4c4a:	62e3      	str	r3, [r4, #44]	; 0x2c
    4c4c:	4b11      	ldr	r3, [pc, #68]	; (4c94 <start+0xf0>)
    4c4e:	681b      	ldr	r3, [r3, #0]
    4c50:	6323      	str	r3, [r4, #48]	; 0x30
    4c52:	f7ff ff47 	bl	4ae4 <report_debug>
    4c56:	f7ff ff81 	bl	4b5c <report_warns>
    4c5a:	6820      	ldr	r0, [r4, #0]
    4c5c:	bdf8      	pop	{r3, r4, r5, r6, r7, pc}
    4c5e:	46c0      	nop			; (mov r8, r8)
    4c60:	00400350 	.word	0x00400350
    4c64:	00400344 	.word	0x00400344
    4c68:	0040034c 	.word	0x0040034c
    4c6c:	0040098c 	.word	0x0040098c
    4c70:	21000008 	.word	0x21000008
    4c74:	00400b2c 	.word	0x00400b2c
    4c78:	00400678 	.word	0x00400678
    4c7c:	e1000300 	.word	0xe1000300
    4c80:	e1000304 	.word	0xe1000304
    4c84:	e1000320 	.word	0xe1000320
    4c88:	e100031c 	.word	0xe100031c
    4c8c:	40000040 	.word	0x40000040
    4c90:	e1000318 	.word	0xe1000318
    4c94:	e100032c 	.word	0xe100032c

00004c98 <spin1_start_paused>:
    4c98:	b508      	push	{r3, lr}
    4c9a:	2000      	movs	r0, #0
    4c9c:	2101      	movs	r1, #1
    4c9e:	f7ff ff81 	bl	4ba4 <start>
    4ca2:	bd08      	pop	{r3, pc}

00004ca4 <spin1_delay_us>:
    4ca4:	b508      	push	{r3, lr}
    4ca6:	f7fb fb09 	bl	2bc <sark_delay_us>
    4caa:	bd08      	pop	{r3, pc}

00004cac <spin1_dma_transfer>:
    4cac:	b5f0      	push	{r4, r5, r6, r7, lr}
    4cae:	b085      	sub	sp, #20
    4cb0:	9100      	str	r1, [sp, #0]
    4cb2:	9201      	str	r2, [sp, #4]
    4cb4:	1c1c      	adds	r4, r3, #0
    4cb6:	9003      	str	r0, [sp, #12]
    4cb8:	f7fb ea86 	blx	1c8 <cpu_int_disable>
    4cbc:	491f      	ldr	r1, [pc, #124]	; (4d3c <spin1_dma_transfer+0x90>)
    4cbe:	230f      	movs	r3, #15
    4cc0:	684a      	ldr	r2, [r1, #4]
    4cc2:	680f      	ldr	r7, [r1, #0]
    4cc4:	1c55      	adds	r5, r2, #1
    4cc6:	401d      	ands	r5, r3
    4cc8:	1e2e      	subs	r6, r5, #0
    4cca:	4b1d      	ldr	r3, [pc, #116]	; (4d40 <spin1_dma_transfer+0x94>)
    4ccc:	9002      	str	r0, [sp, #8]
    4cce:	42be      	cmp	r6, r7
    4cd0:	d025      	beq.n	4d1e <spin1_dma_transfer+0x72>
    4cd2:	695d      	ldr	r5, [r3, #20]
    4cd4:	04e4      	lsls	r4, r4, #19
    4cd6:	1c68      	adds	r0, r5, #1
    4cd8:	6158      	str	r0, [r3, #20]
    4cda:	980a      	ldr	r0, [sp, #40]	; 0x28
    4cdc:	23c0      	movs	r3, #192	; 0xc0
    4cde:	045b      	lsls	r3, r3, #17
    4ce0:	4303      	orrs	r3, r0
    4ce2:	2014      	movs	r0, #20
    4ce4:	431c      	orrs	r4, r3
    4ce6:	1c03      	adds	r3, r0, #0
    4ce8:	4353      	muls	r3, r2
    4cea:	18c9      	adds	r1, r1, r3
    4cec:	9b03      	ldr	r3, [sp, #12]
    4cee:	60cb      	str	r3, [r1, #12]
    4cf0:	9b00      	ldr	r3, [sp, #0]
    4cf2:	610b      	str	r3, [r1, #16]
    4cf4:	9b01      	ldr	r3, [sp, #4]
    4cf6:	614b      	str	r3, [r1, #20]
    4cf8:	4b12      	ldr	r3, [pc, #72]	; (4d44 <spin1_dma_transfer+0x98>)
    4cfa:	608d      	str	r5, [r1, #8]
    4cfc:	618c      	str	r4, [r1, #24]
    4cfe:	681b      	ldr	r3, [r3, #0]
    4d00:	075b      	lsls	r3, r3, #29
    4d02:	d409      	bmi.n	4d18 <spin1_dma_transfer+0x6c>
    4d04:	4297      	cmp	r7, r2
    4d06:	d107      	bne.n	4d18 <spin1_dma_transfer+0x6c>
    4d08:	4b0f      	ldr	r3, [pc, #60]	; (4d48 <spin1_dma_transfer+0x9c>)
    4d0a:	9a00      	ldr	r2, [sp, #0]
    4d0c:	601a      	str	r2, [r3, #0]
    4d0e:	4b0f      	ldr	r3, [pc, #60]	; (4d4c <spin1_dma_transfer+0xa0>)
    4d10:	9a01      	ldr	r2, [sp, #4]
    4d12:	601a      	str	r2, [r3, #0]
    4d14:	4b0e      	ldr	r3, [pc, #56]	; (4d50 <spin1_dma_transfer+0xa4>)
    4d16:	601c      	str	r4, [r3, #0]
    4d18:	4b08      	ldr	r3, [pc, #32]	; (4d3c <spin1_dma_transfer+0x90>)
    4d1a:	605e      	str	r6, [r3, #4]
    4d1c:	e007      	b.n	4d2e <spin1_dma_transfer+0x82>
    4d1e:	6859      	ldr	r1, [r3, #4]
    4d20:	2202      	movs	r2, #2
    4d22:	430a      	orrs	r2, r1
    4d24:	605a      	str	r2, [r3, #4]
    4d26:	69da      	ldr	r2, [r3, #28]
    4d28:	2500      	movs	r5, #0
    4d2a:	3201      	adds	r2, #1
    4d2c:	61da      	str	r2, [r3, #28]
    4d2e:	9802      	ldr	r0, [sp, #8]
    4d30:	f7fb ea52 	blx	1d8 <cpu_int_restore>
    4d34:	1c28      	adds	r0, r5, #0
    4d36:	b005      	add	sp, #20
    4d38:	bdf0      	pop	{r4, r5, r6, r7, pc}
    4d3a:	46c0      	nop			; (mov r8, r8)
    4d3c:	004009e0 	.word	0x004009e0
    4d40:	0040098c 	.word	0x0040098c
    4d44:	40000014 	.word	0x40000014
    4d48:	40000004 	.word	0x40000004
    4d4c:	40000008 	.word	0x40000008
    4d50:	4000000c 	.word	0x4000000c

00004d54 <spin1_memcpy>:
    4d54:	2300      	movs	r3, #0
    4d56:	b510      	push	{r4, lr}
    4d58:	4293      	cmp	r3, r2
    4d5a:	d003      	beq.n	4d64 <spin1_memcpy+0x10>
    4d5c:	5ccc      	ldrb	r4, [r1, r3]
    4d5e:	54c4      	strb	r4, [r0, r3]
    4d60:	3301      	adds	r3, #1
    4d62:	e7f9      	b.n	4d58 <spin1_memcpy+0x4>
    4d64:	bd10      	pop	{r4, pc}
	...

00004d68 <spin1_send_packet>:
    4d68:	b5f7      	push	{r0, r1, r2, r4, r5, r6, r7, lr}
    4d6a:	1c0d      	adds	r5, r1, #0
    4d6c:	1c14      	adds	r4, r2, #0
    4d6e:	1c06      	adds	r6, r0, #0
    4d70:	f7fb ea1a 	blx	1a8 <cpu_irq_disable>
    4d74:	2380      	movs	r3, #128	; 0x80
    4d76:	059b      	lsls	r3, r3, #22
    4d78:	469c      	mov	ip, r3
    4d7a:	4662      	mov	r2, ip
    4d7c:	2300      	movs	r3, #0
    4d7e:	270f      	movs	r7, #15
    4d80:	9000      	str	r0, [sp, #0]
    4d82:	6013      	str	r3, [r2, #0]
    4d84:	6811      	ldr	r1, [r2, #0]
    4d86:	4a2e      	ldr	r2, [pc, #184]	; (4e40 <spin1_send_packet+0xd8>)
    4d88:	0049      	lsls	r1, r1, #1
    4d8a:	d51b      	bpl.n	4dc4 <spin1_send_packet+0x5c>
    4d8c:	6850      	ldr	r0, [r2, #4]
    4d8e:	1c41      	adds	r1, r0, #1
    4d90:	400f      	ands	r7, r1
    4d92:	6811      	ldr	r1, [r2, #0]
    4d94:	428f      	cmp	r7, r1
    4d96:	d109      	bne.n	4dac <spin1_send_packet+0x44>
    4d98:	4a2a      	ldr	r2, [pc, #168]	; (4e44 <spin1_send_packet+0xdc>)
    4d9a:	2104      	movs	r1, #4
    4d9c:	6854      	ldr	r4, [r2, #4]
    4d9e:	4321      	orrs	r1, r4
    4da0:	6051      	str	r1, [r2, #4]
    4da2:	6a51      	ldr	r1, [r2, #36]	; 0x24
    4da4:	1c1c      	adds	r4, r3, #0
    4da6:	3101      	adds	r1, #1
    4da8:	6251      	str	r1, [r2, #36]	; 0x24
    4daa:	e044      	b.n	4e36 <spin1_send_packet+0xce>
    4dac:	230c      	movs	r3, #12
    4dae:	1c01      	adds	r1, r0, #0
    4db0:	4359      	muls	r1, r3
    4db2:	6057      	str	r7, [r2, #4]
    4db4:	1851      	adds	r1, r2, r1
    4db6:	2280      	movs	r2, #128	; 0x80
    4db8:	608e      	str	r6, [r1, #8]
    4dba:	60cd      	str	r5, [r1, #12]
    4dbc:	610c      	str	r4, [r1, #16]
    4dbe:	0112      	lsls	r2, r2, #4
    4dc0:	4b21      	ldr	r3, [pc, #132]	; (4e48 <spin1_send_packet+0xe0>)
    4dc2:	e02a      	b.n	4e1a <spin1_send_packet+0xb2>
    4dc4:	6853      	ldr	r3, [r2, #4]
    4dc6:	6811      	ldr	r1, [r2, #0]
    4dc8:	3301      	adds	r3, #1
    4dca:	403b      	ands	r3, r7
    4dcc:	428b      	cmp	r3, r1
    4dce:	d113      	bne.n	4df8 <spin1_send_packet+0x90>
    4dd0:	200c      	movs	r0, #12
    4dd2:	1c01      	adds	r1, r0, #0
    4dd4:	4359      	muls	r1, r3
    4dd6:	1851      	adds	r1, r2, r1
    4dd8:	6888      	ldr	r0, [r1, #8]
    4dda:	3301      	adds	r3, #1
    4ddc:	9001      	str	r0, [sp, #4]
    4dde:	403b      	ands	r3, r7
    4de0:	68c8      	ldr	r0, [r1, #12]
    4de2:	6909      	ldr	r1, [r1, #16]
    4de4:	6013      	str	r3, [r2, #0]
    4de6:	4663      	mov	r3, ip
    4de8:	6019      	str	r1, [r3, #0]
    4dea:	038b      	lsls	r3, r1, #14
    4dec:	d501      	bpl.n	4df2 <spin1_send_packet+0x8a>
    4dee:	4b17      	ldr	r3, [pc, #92]	; (4e4c <spin1_send_packet+0xe4>)
    4df0:	6018      	str	r0, [r3, #0]
    4df2:	4b17      	ldr	r3, [pc, #92]	; (4e50 <spin1_send_packet+0xe8>)
    4df4:	9a01      	ldr	r2, [sp, #4]
    4df6:	601a      	str	r2, [r3, #0]
    4df8:	4911      	ldr	r1, [pc, #68]	; (4e40 <spin1_send_packet+0xd8>)
    4dfa:	684a      	ldr	r2, [r1, #4]
    4dfc:	680b      	ldr	r3, [r1, #0]
    4dfe:	4293      	cmp	r3, r2
    4e00:	d10d      	bne.n	4e1e <spin1_send_packet+0xb6>
    4e02:	2380      	movs	r3, #128	; 0x80
    4e04:	059b      	lsls	r3, r3, #22
    4e06:	601c      	str	r4, [r3, #0]
    4e08:	03a3      	lsls	r3, r4, #14
    4e0a:	d501      	bpl.n	4e10 <spin1_send_packet+0xa8>
    4e0c:	4b0f      	ldr	r3, [pc, #60]	; (4e4c <spin1_send_packet+0xe4>)
    4e0e:	601d      	str	r5, [r3, #0]
    4e10:	4b0f      	ldr	r3, [pc, #60]	; (4e50 <spin1_send_packet+0xe8>)
    4e12:	2280      	movs	r2, #128	; 0x80
    4e14:	601e      	str	r6, [r3, #0]
    4e16:	4b0f      	ldr	r3, [pc, #60]	; (4e54 <spin1_send_packet+0xec>)
    4e18:	0112      	lsls	r2, r2, #4
    4e1a:	601a      	str	r2, [r3, #0]
    4e1c:	e00a      	b.n	4e34 <spin1_send_packet+0xcc>
    4e1e:	200c      	movs	r0, #12
    4e20:	1c03      	adds	r3, r0, #0
    4e22:	4353      	muls	r3, r2
    4e24:	18cb      	adds	r3, r1, r3
    4e26:	609e      	str	r6, [r3, #8]
    4e28:	60dd      	str	r5, [r3, #12]
    4e2a:	611c      	str	r4, [r3, #16]
    4e2c:	3201      	adds	r2, #1
    4e2e:	230f      	movs	r3, #15
    4e30:	401a      	ands	r2, r3
    4e32:	604a      	str	r2, [r1, #4]
    4e34:	2401      	movs	r4, #1
    4e36:	9800      	ldr	r0, [sp, #0]
    4e38:	f7fb e9ce 	blx	1d8 <cpu_int_restore>
    4e3c:	1c20      	adds	r0, r4, #0
    4e3e:	bdfe      	pop	{r1, r2, r3, r4, r5, r6, r7, pc}
    4e40:	00400b74 	.word	0x00400b74
    4e44:	0040098c 	.word	0x0040098c
    4e48:	1f000010 	.word	0x1f000010
    4e4c:	20000004 	.word	0x20000004
    4e50:	20000008 	.word	0x20000008
    4e54:	1f000014 	.word	0x1f000014

00004e58 <spin1_send_mc_packet>:
    4e58:	b508      	push	{r3, lr}
    4e5a:	1e53      	subs	r3, r2, #1
    4e5c:	419a      	sbcs	r2, r3
    4e5e:	0452      	lsls	r2, r2, #17
    4e60:	f7ff ff82 	bl	4d68 <spin1_send_packet>
    4e64:	bd08      	pop	{r3, pc}
	...

00004e68 <spin1_get_core_id>:
    4e68:	4b01      	ldr	r3, [pc, #4]	; (4e70 <spin1_get_core_id+0x8>)
    4e6a:	6818      	ldr	r0, [r3, #0]
    4e6c:	4770      	bx	lr
    4e6e:	46c0      	nop			; (mov r8, r8)
    4e70:	004008b4 	.word	0x004008b4

00004e74 <spin1_get_chip_id>:
    4e74:	4b01      	ldr	r3, [pc, #4]	; (4e7c <spin1_get_chip_id+0x8>)
    4e76:	8818      	ldrh	r0, [r3, #0]
    4e78:	4770      	bx	lr
    4e7a:	46c0      	nop			; (mov r8, r8)
    4e7c:	e5007f00 	.word	0xe5007f00

00004e80 <spin1_malloc>:
    4e80:	b508      	push	{r3, lr}
    4e82:	2101      	movs	r1, #1
    4e84:	f7ff f8f0 	bl	4068 <sark_alloc>
    4e88:	bd08      	pop	{r3, pc}
	...

00004e8c <schedule_sysmode>:
    4e8c:	b5f0      	push	{r4, r5, r6, r7, lr}
    4e8e:	4c1e      	ldr	r4, [pc, #120]	; (4f08 <schedule_sysmode+0x7c>)
    4e90:	00c5      	lsls	r5, r0, #3
    4e92:	1963      	adds	r3, r4, r5
    4e94:	685b      	ldr	r3, [r3, #4]
    4e96:	b085      	sub	sp, #20
    4e98:	9103      	str	r1, [sp, #12]
    4e9a:	2b00      	cmp	r3, #0
    4e9c:	dc04      	bgt.n	4ea8 <schedule_sysmode+0x1c>
    4e9e:	1c11      	adds	r1, r2, #0
    4ea0:	9803      	ldr	r0, [sp, #12]
    4ea2:	592b      	ldr	r3, [r5, r4]
    4ea4:	4798      	blx	r3
    4ea6:	e02d      	b.n	4f04 <schedule_sysmode+0x78>
    4ea8:	3b01      	subs	r3, #1
    4eaa:	26c8      	movs	r6, #200	; 0xc8
    4eac:	1c1f      	adds	r7, r3, #0
    4eae:	4377      	muls	r7, r6
    4eb0:	4916      	ldr	r1, [pc, #88]	; (4f0c <schedule_sysmode+0x80>)
    4eb2:	9701      	str	r7, [sp, #4]
    4eb4:	19ce      	adds	r6, r1, r7
    4eb6:	6873      	ldr	r3, [r6, #4]
    4eb8:	9302      	str	r3, [sp, #8]
    4eba:	270f      	movs	r7, #15
    4ebc:	3301      	adds	r3, #1
    4ebe:	403b      	ands	r3, r7
    4ec0:	469c      	mov	ip, r3
    4ec2:	9b01      	ldr	r3, [sp, #4]
    4ec4:	585b      	ldr	r3, [r3, r1]
    4ec6:	459c      	cmp	ip, r3
    4ec8:	d014      	beq.n	4ef4 <schedule_sysmode+0x68>
    4eca:	9b02      	ldr	r3, [sp, #8]
    4ecc:	3f03      	subs	r7, #3
    4ece:	437b      	muls	r3, r7
    4ed0:	1c1f      	adds	r7, r3, #0
    4ed2:	9b01      	ldr	r3, [sp, #4]
    4ed4:	18fb      	adds	r3, r7, r3
    4ed6:	18c9      	adds	r1, r1, r3
    4ed8:	592b      	ldr	r3, [r5, r4]
    4eda:	608b      	str	r3, [r1, #8]
    4edc:	9b03      	ldr	r3, [sp, #12]
    4ede:	60cb      	str	r3, [r1, #12]
    4ee0:	4663      	mov	r3, ip
    4ee2:	610a      	str	r2, [r1, #16]
    4ee4:	6073      	str	r3, [r6, #4]
    4ee6:	2802      	cmp	r0, #2
    4ee8:	d10c      	bne.n	4f04 <schedule_sysmode+0x78>
    4eea:	4a09      	ldr	r2, [pc, #36]	; (4f10 <schedule_sysmode+0x84>)
    4eec:	6bd3      	ldr	r3, [r2, #60]	; 0x3c
    4eee:	3301      	adds	r3, #1
    4ef0:	63d3      	str	r3, [r2, #60]	; 0x3c
    4ef2:	e007      	b.n	4f04 <schedule_sysmode+0x78>
    4ef4:	4b06      	ldr	r3, [pc, #24]	; (4f10 <schedule_sysmode+0x84>)
    4ef6:	2201      	movs	r2, #1
    4ef8:	6859      	ldr	r1, [r3, #4]
    4efa:	430a      	orrs	r2, r1
    4efc:	605a      	str	r2, [r3, #4]
    4efe:	6a1a      	ldr	r2, [r3, #32]
    4f00:	3201      	adds	r2, #1
    4f02:	621a      	str	r2, [r3, #32]
    4f04:	b005      	add	sp, #20
    4f06:	bdf0      	pop	{r4, r5, r6, r7, pc}
    4f08:	00400b34 	.word	0x00400b34
    4f0c:	00400358 	.word	0x00400358
    4f10:	0040098c 	.word	0x0040098c

00004f14 <spin1_trigger_user_event>:
    4f14:	4b08      	ldr	r3, [pc, #32]	; (4f38 <spin1_trigger_user_event+0x24>)
    4f16:	b510      	push	{r4, lr}
    4f18:	781a      	ldrb	r2, [r3, #0]
    4f1a:	1c04      	adds	r4, r0, #0
    4f1c:	2000      	movs	r0, #0
    4f1e:	4282      	cmp	r2, r0
    4f20:	d108      	bne.n	4f34 <spin1_trigger_user_event+0x20>
    4f22:	4a06      	ldr	r2, [pc, #24]	; (4f3c <spin1_trigger_user_event+0x28>)
    4f24:	3001      	adds	r0, #1
    4f26:	6014      	str	r4, [r2, #0]
    4f28:	4a05      	ldr	r2, [pc, #20]	; (4f40 <spin1_trigger_user_event+0x2c>)
    4f2a:	7018      	strb	r0, [r3, #0]
    4f2c:	4b05      	ldr	r3, [pc, #20]	; (4f44 <spin1_trigger_user_event+0x30>)
    4f2e:	6011      	str	r1, [r2, #0]
    4f30:	2202      	movs	r2, #2
    4f32:	601a      	str	r2, [r3, #0]
    4f34:	bd10      	pop	{r4, pc}
    4f36:	46c0      	nop			; (mov r8, r8)
    4f38:	00400354 	.word	0x00400354
    4f3c:	00400b30 	.word	0x00400b30
    4f40:	004009d8 	.word	0x004009d8
    4f44:	1f000018 	.word	0x1f000018

00004f48 <sark_pre_main>:
    4f48:	b508      	push	{r3, lr}
    4f4a:	f7fe fcf5 	bl	3938 <sark_call_cpp_constructors>
    4f4e:	2006      	movs	r0, #6
    4f50:	f7fe fc7c 	bl	384c <sark_cpu_state>
    4f54:	2201      	movs	r2, #1
    4f56:	235b      	movs	r3, #91	; 0x5b
    4f58:	701a      	strb	r2, [r3, #0]
    4f5a:	f7fe fc7f 	bl	385c <sark_app_lead>
    4f5e:	4b04      	ldr	r3, [pc, #16]	; (4f70 <sark_pre_main+0x28>)
    4f60:	4a04      	ldr	r2, [pc, #16]	; (4f74 <sark_pre_main+0x2c>)
    4f62:	681b      	ldr	r3, [r3, #0]
    4f64:	1ac3      	subs	r3, r0, r3
    4f66:	4258      	negs	r0, r3
    4f68:	4143      	adcs	r3, r0
    4f6a:	7013      	strb	r3, [r2, #0]
    4f6c:	bd08      	pop	{r3, pc}
    4f6e:	46c0      	nop			; (mov r8, r8)
    4f70:	004008b4 	.word	0x004008b4
    4f74:	004009dc 	.word	0x004009dc

00004f78 <sark_post_main>:
    4f78:	b508      	push	{r3, lr}
    4f7a:	200b      	movs	r0, #11
    4f7c:	f7fe fc66 	bl	384c <sark_cpu_state>
    4f80:	bd08      	pop	{r3, pc}
	...

00004f84 <cc_rx_ready_isr>:
    4f84:	e24ee004 	sub	lr, lr, #4
    4f88:	e92d500f 	push	{r0, r1, r2, r3, ip, lr}
    4f8c:	e3a03202 	mov	r3, #536870912	; 0x20000000
    4f90:	e593000c 	ldr	r0, [r3, #12]
    4f94:	e59fc058 	ldr	ip, [pc, #88]	; 4ff4 <cc_rx_ready_isr+0x70>
    4f98:	e2100802 	ands	r0, r0, #131072	; 0x20000
    4f9c:	0a000006 	beq	4fbc <cc_rx_ready_isr+0x38>
    4fa0:	e5932010 	ldr	r2, [r3, #16]
    4fa4:	e5931014 	ldr	r1, [r3, #20]
    4fa8:	e59c3028 	ldr	r3, [ip, #40]	; 0x28
    4fac:	e3530000 	cmp	r3, #0
    4fb0:	13a00005 	movne	r0, #5
    4fb4:	1a000005 	bne	4fd0 <cc_rx_ready_isr+0x4c>
    4fb8:	ea000006 	b	4fd8 <cc_rx_ready_isr+0x54>
    4fbc:	e5931014 	ldr	r1, [r3, #20]
    4fc0:	e59c3000 	ldr	r3, [ip]
    4fc4:	e3530000 	cmp	r3, #0
    4fc8:	0a000002 	beq	4fd8 <cc_rx_ready_isr+0x54>
    4fcc:	e1a02000 	mov	r2, r0
    4fd0:	ebffecd7 	bl	334 <schedule>
    4fd4:	ea000003 	b	4fe8 <cc_rx_ready_isr+0x64>
    4fd8:	e59f2018 	ldr	r2, [pc, #24]	; 4ff8 <cc_rx_ready_isr+0x74>
    4fdc:	e5923010 	ldr	r3, [r2, #16]
    4fe0:	e2833001 	add	r3, r3, #1
    4fe4:	e5823010 	str	r3, [r2, #16]
    4fe8:	e3a0341f 	mov	r3, #520093696	; 0x1f000000
    4fec:	e5833030 	str	r3, [r3, #48]	; 0x30
    4ff0:	e8fd900f 	ldm	sp!, {r0, r1, r2, r3, ip, pc}^
    4ff4:	00400b34 	.word	0x00400b34
    4ff8:	0040098c 	.word	0x0040098c

00004ffc <cc_rx_ready_fiqsr>:
    4ffc:	e24ee004 	sub	lr, lr, #4
    5000:	e92d500f 	push	{r0, r1, r2, r3, ip, lr}
    5004:	e3a03202 	mov	r3, #536870912	; 0x20000000
    5008:	e593100c 	ldr	r1, [r3, #12]
    500c:	e59f201c 	ldr	r2, [pc, #28]	; 5030 <cc_rx_ready_fiqsr+0x34>
    5010:	e2111802 	ands	r1, r1, #131072	; 0x20000
    5014:	15931010 	ldrne	r1, [r3, #16]
    5018:	05930014 	ldreq	r0, [r3, #20]
    501c:	15930014 	ldrne	r0, [r3, #20]
    5020:	05923000 	ldreq	r3, [r2]
    5024:	15923028 	ldrne	r3, [r2, #40]	; 0x28
    5028:	e12fff33 	blx	r3
    502c:	e8fd900f 	ldm	sp!, {r0, r1, r2, r3, ip, pc}^
    5030:	00400b34 	.word	0x00400b34

00005034 <cc_fr_ready_isr>:
    5034:	e24ee004 	sub	lr, lr, #4
    5038:	e92d500f 	push	{r0, r1, r2, r3, ip, lr}
    503c:	e3a03202 	mov	r3, #536870912	; 0x20000000
    5040:	e593200c 	ldr	r2, [r3, #12]
    5044:	e59f0054 	ldr	r0, [pc, #84]	; 50a0 <cc_fr_ready_isr+0x6c>
    5048:	e2122802 	ands	r2, r2, #131072	; 0x20000
    504c:	0a00000a 	beq	507c <cc_fr_ready_isr+0x48>
    5050:	e5932010 	ldr	r2, [r3, #16]
    5054:	e5931014 	ldr	r1, [r3, #20]
    5058:	e5903038 	ldr	r3, [r0, #56]	; 0x38
    505c:	e3530000 	cmp	r3, #0
    5060:	13a00007 	movne	r0, #7
    5064:	1a000009 	bne	5090 <cc_fr_ready_isr+0x5c>
    5068:	e59f2034 	ldr	r2, [pc, #52]	; 50a4 <cc_fr_ready_isr+0x70>
    506c:	e5923034 	ldr	r3, [r2, #52]	; 0x34
    5070:	e2833001 	add	r3, r3, #1
    5074:	e5823034 	str	r3, [r2, #52]	; 0x34
    5078:	ea000005 	b	5094 <cc_fr_ready_isr+0x60>
    507c:	e5931014 	ldr	r1, [r3, #20]
    5080:	e5903030 	ldr	r3, [r0, #48]	; 0x30
    5084:	e3530000 	cmp	r3, #0
    5088:	0afffff6 	beq	5068 <cc_fr_ready_isr+0x34>
    508c:	e3a00006 	mov	r0, #6
    5090:	ebffeca7 	bl	334 <schedule>
    5094:	e3a0341f 	mov	r3, #520093696	; 0x1f000000
    5098:	e5833030 	str	r3, [r3, #48]	; 0x30
    509c:	e8fd900f 	ldm	sp!, {r0, r1, r2, r3, ip, pc}^
    50a0:	00400b34 	.word	0x00400b34
    50a4:	0040098c 	.word	0x0040098c

000050a8 <cc_fr_ready_fiqsr>:
    50a8:	e24ee004 	sub	lr, lr, #4
    50ac:	e92d500f 	push	{r0, r1, r2, r3, ip, lr}
    50b0:	e3a03202 	mov	r3, #536870912	; 0x20000000
    50b4:	e593100c 	ldr	r1, [r3, #12]
    50b8:	e59f201c 	ldr	r2, [pc, #28]	; 50dc <cc_fr_ready_fiqsr+0x34>
    50bc:	e2111802 	ands	r1, r1, #131072	; 0x20000
    50c0:	15931010 	ldrne	r1, [r3, #16]
    50c4:	05930014 	ldreq	r0, [r3, #20]
    50c8:	15930014 	ldrne	r0, [r3, #20]
    50cc:	05923030 	ldreq	r3, [r2, #48]	; 0x30
    50d0:	15923038 	ldrne	r3, [r2, #56]	; 0x38
    50d4:	e12fff33 	blx	r3
    50d8:	e8fd900f 	ldm	sp!, {r0, r1, r2, r3, ip, pc}^
    50dc:	00400b34 	.word	0x00400b34

000050e0 <cc_tx_empty_isr>:
    50e0:	e24ee004 	sub	lr, lr, #4
    50e4:	e92d500f 	push	{r0, r1, r2, r3, ip, lr}
    50e8:	e3a02000 	mov	r2, #0
    50ec:	e3a03202 	mov	r3, #536870912	; 0x20000000
    50f0:	e5832000 	str	r2, [r3]
    50f4:	e59f1070 	ldr	r1, [pc, #112]	; 516c <cc_tx_empty_isr+0x8c>
    50f8:	e5913000 	ldr	r3, [r1]
    50fc:	e5912004 	ldr	r2, [r1, #4]
    5100:	e1530002 	cmp	r3, r2
    5104:	0a000011 	beq	5150 <cc_tx_empty_isr+0x70>
    5108:	e3a00202 	mov	r0, #536870912	; 0x20000000
    510c:	e5902000 	ldr	r2, [r0]
    5110:	e3120101 	tst	r2, #1073741824	; 0x40000000
    5114:	1a000010 	bne	515c <cc_tx_empty_isr+0x7c>
    5118:	e3a0200c 	mov	r2, #12
    511c:	e0221293 	mla	r2, r3, r2, r1
    5120:	e2833001 	add	r3, r3, #1
    5124:	e592c008 	ldr	ip, [r2, #8]
    5128:	e592e00c 	ldr	lr, [r2, #12]
    512c:	e5922010 	ldr	r2, [r2, #16]
    5130:	e203300f 	and	r3, r3, #15
    5134:	e5813000 	str	r3, [r1]
    5138:	e3120802 	tst	r2, #131072	; 0x20000
    513c:	e3a03202 	mov	r3, #536870912	; 0x20000000
    5140:	e5802000 	str	r2, [r0]
    5144:	1580e004 	strne	lr, [r0, #4]
    5148:	e583c008 	str	ip, [r3, #8]
    514c:	eaffffe8 	b	50f4 <cc_tx_empty_isr+0x14>
    5150:	e3a02b02 	mov	r2, #2048	; 0x800
    5154:	e3a0341f 	mov	r3, #520093696	; 0x1f000000
    5158:	e5832014 	str	r2, [r3, #20]
    515c:	e3a02001 	mov	r2, #1
    5160:	e3a0341f 	mov	r3, #520093696	; 0x1f000000
    5164:	e5832030 	str	r2, [r3, #48]	; 0x30
    5168:	e8fd900f 	ldm	sp!, {r0, r1, r2, r3, ip, pc}^
    516c:	00400b74 	.word	0x00400b74

00005170 <dma_done_isr>:
    5170:	e24ee004 	sub	lr, lr, #4
    5174:	e92d503f 	push	{r0, r1, r2, r3, r4, r5, ip, lr}
    5178:	e59fe078 	ldr	lr, [pc, #120]	; 51f8 <dma_done_isr+0x88>
    517c:	e3a03008 	mov	r3, #8
    5180:	e3a04101 	mov	r4, #1073741824	; 0x40000000
    5184:	e5843010 	str	r3, [r4, #16]
    5188:	e59e0000 	ldr	r0, [lr]
    518c:	e3a0c014 	mov	ip, #20
    5190:	e023e09c 	mla	r3, ip, r0, lr
    5194:	e2800001 	add	r0, r0, #1
    5198:	e5931008 	ldr	r1, [r3, #8]
    519c:	e593200c 	ldr	r2, [r3, #12]
    51a0:	e200300f 	and	r3, r0, #15
    51a4:	e59e0004 	ldr	r0, [lr, #4]
    51a8:	e58e3000 	str	r3, [lr]
    51ac:	e1530000 	cmp	r3, r0
    51b0:	0a000006 	beq	51d0 <dma_done_isr+0x60>
    51b4:	e023e39c 	mla	r3, ip, r3, lr
    51b8:	e593c014 	ldr	ip, [r3, #20]
    51bc:	e5930018 	ldr	r0, [r3, #24]
    51c0:	e5933010 	ldr	r3, [r3, #16]
    51c4:	e5843004 	str	r3, [r4, #4]
    51c8:	e584c008 	str	ip, [r4, #8]
    51cc:	e584000c 	str	r0, [r4, #12]
    51d0:	e59f3024 	ldr	r3, [pc, #36]	; 51fc <dma_done_isr+0x8c>
    51d4:	e5933008 	ldr	r3, [r3, #8]
    51d8:	e3530000 	cmp	r3, #0
    51dc:	0a000001 	beq	51e8 <dma_done_isr+0x78>
    51e0:	e3a00001 	mov	r0, #1
    51e4:	ebffec52 	bl	334 <schedule>
    51e8:	e3a02001 	mov	r2, #1
    51ec:	e3a0341f 	mov	r3, #520093696	; 0x1f000000
    51f0:	e5832030 	str	r2, [r3, #48]	; 0x30
    51f4:	e8fd903f 	ldm	sp!, {r0, r1, r2, r3, r4, r5, ip, pc}^
    51f8:	004009e0 	.word	0x004009e0
    51fc:	00400b34 	.word	0x00400b34

00005200 <dma_done_fiqsr>:
    5200:	e24ee004 	sub	lr, lr, #4
    5204:	e92d503f 	push	{r0, r1, r2, r3, r4, r5, ip, lr}
    5208:	e59fe060 	ldr	lr, [pc, #96]	; 5270 <dma_done_fiqsr+0x70>
    520c:	e3a03008 	mov	r3, #8
    5210:	e3a04101 	mov	r4, #1073741824	; 0x40000000
    5214:	e5843010 	str	r3, [r4, #16]
    5218:	e59e2000 	ldr	r2, [lr]
    521c:	e3a0c014 	mov	ip, #20
    5220:	e023e29c 	mla	r3, ip, r2, lr
    5224:	e2822001 	add	r2, r2, #1
    5228:	e5930008 	ldr	r0, [r3, #8]
    522c:	e593100c 	ldr	r1, [r3, #12]
    5230:	e202300f 	and	r3, r2, #15
    5234:	e59e2004 	ldr	r2, [lr, #4]
    5238:	e58e3000 	str	r3, [lr]
    523c:	e1530002 	cmp	r3, r2
    5240:	0a000006 	beq	5260 <dma_done_fiqsr+0x60>
    5244:	e023e39c 	mla	r3, ip, r3, lr
    5248:	e593c014 	ldr	ip, [r3, #20]
    524c:	e5932018 	ldr	r2, [r3, #24]
    5250:	e5933010 	ldr	r3, [r3, #16]
    5254:	e5843004 	str	r3, [r4, #4]
    5258:	e584c008 	str	ip, [r4, #8]
    525c:	e584200c 	str	r2, [r4, #12]
    5260:	e59f300c 	ldr	r3, [pc, #12]	; 5274 <dma_done_fiqsr+0x74>
    5264:	e5933008 	ldr	r3, [r3, #8]
    5268:	e12fff33 	blx	r3
    526c:	e8fd903f 	ldm	sp!, {r0, r1, r2, r3, r4, r5, ip, pc}^
    5270:	004009e0 	.word	0x004009e0
    5274:	00400b34 	.word	0x00400b34

00005278 <timer1_isr>:
    5278:	e24ee004 	sub	lr, lr, #4
    527c:	e92d500f 	push	{r0, r1, r2, r3, ip, lr}
    5280:	e3a02001 	mov	r2, #1
    5284:	e3a03421 	mov	r3, #553648128	; 0x21000000
    5288:	e583200c 	str	r2, [r3, #12]
    528c:	e59f3060 	ldr	r3, [pc, #96]	; 52f4 <timer1_isr+0x7c>
    5290:	e5931000 	ldr	r1, [r3]
    5294:	e0811002 	add	r1, r1, r2
    5298:	e5831000 	str	r1, [r3]
    529c:	e59f3054 	ldr	r3, [pc, #84]	; 52f8 <timer1_isr+0x80>
    52a0:	e5933010 	ldr	r3, [r3, #16]
    52a4:	e3530000 	cmp	r3, #0
    52a8:	0a00000d 	beq	52e4 <timer1_isr+0x6c>
    52ac:	e59f3048 	ldr	r3, [pc, #72]	; 52fc <timer1_isr+0x84>
    52b0:	e5932038 	ldr	r2, [r3, #56]	; 0x38
    52b4:	e3520000 	cmp	r2, #0
    52b8:	0a000006 	beq	52d8 <timer1_isr+0x60>
    52bc:	e5932044 	ldr	r2, [r3, #68]	; 0x44
    52c0:	e5930040 	ldr	r0, [r3, #64]	; 0x40
    52c4:	e2822001 	add	r2, r2, #1
    52c8:	e5832044 	str	r2, [r3, #68]	; 0x44
    52cc:	e593203c 	ldr	r2, [r3, #60]	; 0x3c
    52d0:	e1520000 	cmp	r2, r0
    52d4:	85832040 	strhi	r2, [r3, #64]	; 0x40
    52d8:	e3a00002 	mov	r0, #2
    52dc:	e3a02000 	mov	r2, #0
    52e0:	ebffec13 	bl	334 <schedule>
    52e4:	e3a02001 	mov	r2, #1
    52e8:	e3a0341f 	mov	r3, #520093696	; 0x1f000000
    52ec:	e5832030 	str	r2, [r3, #48]	; 0x30
    52f0:	e8fd900f 	ldm	sp!, {r0, r1, r2, r3, ip, pc}^
    52f4:	00400b2c 	.word	0x00400b2c
    52f8:	00400b34 	.word	0x00400b34
    52fc:	0040098c 	.word	0x0040098c

00005300 <timer1_fiqsr>:
    5300:	e24ee004 	sub	lr, lr, #4
    5304:	e92d500f 	push	{r0, r1, r2, r3, ip, lr}
    5308:	e3a02001 	mov	r2, #1
    530c:	e3a03421 	mov	r3, #553648128	; 0x21000000
    5310:	e583200c 	str	r2, [r3, #12]
    5314:	e59f301c 	ldr	r3, [pc, #28]	; 5338 <timer1_fiqsr+0x38>
    5318:	e3a01000 	mov	r1, #0
    531c:	e5930000 	ldr	r0, [r3]
    5320:	e0800002 	add	r0, r0, r2
    5324:	e5830000 	str	r0, [r3]
    5328:	e59f300c 	ldr	r3, [pc, #12]	; 533c <timer1_fiqsr+0x3c>
    532c:	e5933010 	ldr	r3, [r3, #16]
    5330:	e12fff33 	blx	r3
    5334:	e8fd900f 	ldm	sp!, {r0, r1, r2, r3, ip, pc}^
    5338:	00400b2c 	.word	0x00400b2c
    533c:	00400b34 	.word	0x00400b34

00005340 <soft_int_isr>:
    5340:	e24ee004 	sub	lr, lr, #4
    5344:	e92d500f 	push	{r0, r1, r2, r3, ip, lr}
    5348:	e3a0341f 	mov	r3, #520093696	; 0x1f000000
    534c:	e3a02002 	mov	r2, #2
    5350:	e583201c 	str	r2, [r3, #28]
    5354:	e59f303c 	ldr	r3, [pc, #60]	; 5398 <soft_int_isr+0x58>
    5358:	e5933020 	ldr	r3, [r3, #32]
    535c:	e3530000 	cmp	r3, #0
    5360:	0a000005 	beq	537c <soft_int_isr+0x3c>
    5364:	e59f3030 	ldr	r3, [pc, #48]	; 539c <soft_int_isr+0x5c>
    5368:	e3a00004 	mov	r0, #4
    536c:	e5931000 	ldr	r1, [r3]
    5370:	e59f3028 	ldr	r3, [pc, #40]	; 53a0 <soft_int_isr+0x60>
    5374:	e5932000 	ldr	r2, [r3]
    5378:	ebffebed 	bl	334 <schedule>
    537c:	e59f3020 	ldr	r3, [pc, #32]	; 53a4 <soft_int_isr+0x64>
    5380:	e3a02000 	mov	r2, #0
    5384:	e5c32000 	strb	r2, [r3]
    5388:	e3a02001 	mov	r2, #1
    538c:	e3a0341f 	mov	r3, #520093696	; 0x1f000000
    5390:	e5832030 	str	r2, [r3, #48]	; 0x30
    5394:	e8fd900f 	ldm	sp!, {r0, r1, r2, r3, ip, pc}^
    5398:	00400b34 	.word	0x00400b34
    539c:	00400b30 	.word	0x00400b30
    53a0:	004009d8 	.word	0x004009d8
    53a4:	00400354 	.word	0x00400354

000053a8 <soft_int_fiqsr>:
    53a8:	e24ee004 	sub	lr, lr, #4
    53ac:	e92d500f 	push	{r0, r1, r2, r3, ip, lr}
    53b0:	e3a02002 	mov	r2, #2
    53b4:	e3a0341f 	mov	r3, #520093696	; 0x1f000000
    53b8:	e583201c 	str	r2, [r3, #28]
    53bc:	e59f2024 	ldr	r2, [pc, #36]	; 53e8 <soft_int_fiqsr+0x40>
    53c0:	e59f3024 	ldr	r3, [pc, #36]	; 53ec <soft_int_fiqsr+0x44>
    53c4:	e5920000 	ldr	r0, [r2]
    53c8:	e59f2020 	ldr	r2, [pc, #32]	; 53f0 <soft_int_fiqsr+0x48>
    53cc:	e5933020 	ldr	r3, [r3, #32]
    53d0:	e5921000 	ldr	r1, [r2]
    53d4:	e12fff33 	blx	r3
    53d8:	e59f3014 	ldr	r3, [pc, #20]	; 53f4 <soft_int_fiqsr+0x4c>
    53dc:	e3a02000 	mov	r2, #0
    53e0:	e5c32000 	strb	r2, [r3]
    53e4:	e8fd900f 	ldm	sp!, {r0, r1, r2, r3, ip, pc}^
    53e8:	00400b30 	.word	0x00400b30
    53ec:	00400b34 	.word	0x00400b34
    53f0:	004009d8 	.word	0x004009d8
    53f4:	00400354 	.word	0x00400354

000053f8 <__io_printf_from_arm>:
    53f8:	e51ff004 	ldr	pc, [pc, #-4]	; 53fc <__io_printf_from_arm+0x4>
    53fc:	00004375 	.word	0x00004375

00005400 <__spin1_memcpy_from_arm>:
    5400:	e51ff004 	ldr	pc, [pc, #-4]	; 5404 <__spin1_memcpy_from_arm+0x4>
    5404:	00004d55 	.word	0x00004d55

00005408 <__spin1_start_paused_from_arm>:
    5408:	e51ff004 	ldr	pc, [pc, #-4]	; 540c <__spin1_start_paused_from_arm+0x4>
    540c:	00004c99 	.word	0x00004c99

00005410 <__spin1_msg_free_from_arm>:
    5410:	e51ff004 	ldr	pc, [pc, #-4]	; 5414 <__spin1_msg_free_from_arm+0x4>
    5414:	00004619 	.word	0x00004619

00005418 <__spin1_send_sdp_msg_from_arm>:
    5418:	e51ff004 	ldr	pc, [pc, #-4]	; 541c <__spin1_send_sdp_msg_from_arm+0x4>
    541c:	00004621 	.word	0x00004621

00005420 <__sark_msg_free_from_arm>:
    5420:	e51ff004 	ldr	pc, [pc, #-4]	; 5424 <__sark_msg_free_from_arm+0x4>
    5424:	000038c1 	.word	0x000038c1

00005428 <__sark_cpu_state_from_arm>:
    5428:	e51ff004 	ldr	pc, [pc, #-4]	; 542c <__sark_cpu_state_from_arm+0x4>
    542c:	0000384d 	.word	0x0000384d

00005430 <__spin1_exit_from_arm>:
    5430:	e51ff004 	ldr	pc, [pc, #-4]	; 5434 <__spin1_exit_from_arm+0x4>
    5434:	00004a41 	.word	0x00004a41

00005438 <__init_array_end>:
    5438:	251e7525 	.word	0x251e7525
    543c:	0a64      	.short	0x0a64
    543e:	00          	.byte	0x00
    543f:	25          	.byte	0x25
    5440:	2e251e75 	.word	0x2e251e75
    5444:	251e7838 	.word	0x251e7838
    5448:	1e78382e 	.word	0x1e78382e
    544c:	78382e25 	.word	0x78382e25
    5450:	7525000a 	.word	0x7525000a
    5454:	1e75251e 	.word	0x1e75251e
    5458:	78382e25 	.word	0x78382e25
    545c:	000a      	.short	0x000a
    545e:	7525      	.short	0x7525
    5460:	1e64251e 	.word	0x1e64251e
    5464:	251e6425 	.word	0x251e6425
    5468:	1e78382e 	.word	0x1e78382e
    546c:	78382e25 	.word	0x78382e25
    5470:	382e251e 	.word	0x382e251e
    5474:	2e251e78 	.word	0x2e251e78
    5478:	251e7838 	.word	0x251e7838
    547c:	25000a75 	.word	0x25000a75
    5480:	64251e75 	.word	0x64251e75
    5484:	1e64251e 	.word	0x1e64251e
    5488:	78382e25 	.word	0x78382e25
    548c:	382e251e 	.word	0x382e251e
    5490:	2e251e78 	.word	0x2e251e78
    5494:	251e7838 	.word	0x251e7838
    5498:	0a78382e 	.word	0x0a78382e
    549c:	00          	.byte	0x00
    549d:	25          	.byte	0x25
    549e:	1e75      	.short	0x1e75
    54a0:	000a7325 	.word	0x000a7325
    54a4:	2d6e6f4e 	.word	0x2d6e6f4e
    54a8:	75727473 	.word	0x75727473
    54ac:	72757463 	.word	0x72757463
    54b0:	796c6c61 	.word	0x796c6c61
    54b4:	616c7020 	.word	0x616c7020
    54b8:	63697473 	.word	0x63697473
    54bc:	706d6920 	.word	0x706d6920
    54c0:	00002e6c 	.word	0x00002e6c

000054c4 <build_name>:
    54c4:	635f4649 5f727275 5f707865 00647473     IF_curr_exp_std.

000054d4 <build_date>:
    54d4:	5cbd99ac 251e7525 1e783830 251e6425     ...\%u.%08x.%d.%
    54e4:	25000a64 30251e75 251e7838 1e783830     d..%u.%08x.%08x.
    54f4:	78383025 7525000a 1e75251e 251e7525     %08x..%u.%u.%u.%
    5504:	0a783830 1e752500 251e6425 64251e64     08x..%u.%d.%d.%d
    5514:	0a64251e 1e752500 251e7525 25000a75     .%d..%u.%u.%u..%
    5524:	64251e75 1e64251e 251e6425 64251e64     u.%d.%d.%d.%d.%d
    5534:	0a64251e 52415300 70532f4b 614e4e69     .%d..SARK/SpiNNa
    5544:	0072656b 2e322e33 31300034                       ker.3.2.4.

0000554e <hex>:
    554e:	33323130 37363534 62613938 66656463     0123456789abcdef
    555e:	5b090900 5f697061 75626564 52205d67     ...[api_debug] R
    556e:	6d205254 20202063 61702020 74656b63     TR mc     packet
    557e:	25203a73 09000a64 70615b09 65645f69     s: %d....[api_de
    558e:	5d677562 52545220 64706420 20636d20     bug] RTR dpd mc 
    559e:	6b636170 3a737465 0a642520 5b090900     packets: %d....[
    55ae:	5f697061 75626564 49205d67 74205253     api_debug] ISR t
    55be:	776f7268 6170206e 74656b63 25203a73     hrown packets: %
    55ce:	09000a64 70615b09 65645f69 5d677562     d....[api_debug]
    55de:	52534920 72687420 206e776f 70205246      ISR thrown FR p
    55ee:	656b6361 203a7374 000a6425 615b0909     ackets: %d....[a
    55fe:	645f6970 67756265 4d44205d 75622041     pi_debug] DMA bu
    560e:	73747372 2520203a 09000a64 70615b09     rsts:  %d....[ap
    561e:	61775f69 205d6e72 6e726177 3a676e69     i_warn] warning:
    562e:	73617420 7571206b 20657565 6c6c7566      task queue full
    563e:	75252820 09000a29 70615b09 61775f69      (%u)....[api_wa
    564e:	205d6e72 6e726177 3a676e69 414d4420     rn] warning: DMA
    565e:	65757120 66206575 206c6c75 29752528      queue full (%u)
    566e:	0909000a 6970615b 7261775f 77205d6e     ....[api_warn] w
    567e:	696e7261 203a676e 6b636170 71207465     arning: packet q
    568e:	65756575 6c756620 2528206c 000a2975     ueue full (%u)..
